(lp0
(I1
V1760
p1
Vteamred | random
p2
tp3
a(I2
V1761
p4
Vteamred | random
p5
tp6
a(I3
V1764
p7
Vteamblack | random
p8
tp9
a(I4
V1764
p10
Vteamred | pbgothic | stew | lavin_ghost
p11
tp12
a(I5
V1771
p13
Vteamblack | anatscifi
p14
tp15
a(I6
V1777
p16
Vteamblack | random
p17
tp18
a(I7
V1777
p19
Vteamblack | pbgothic | lavin_ghost
p20
tp21
a(I8
V1780
p22
Vteamblack | random
p23
tp24
a(I9
V1780
p25
Vteamblack | random
p26
tp27
a(I10
V1785
p28
Vteamred | random
p29
tp30
a(I11
V1785
p31
Vteamblack | pbgothic | stew | lavin_deranged
p32
tp33
a(I12
V1786
p34
Vteamred | random
p35
tp36
a(I13
V1786
p37
Vteamblack | pbgothic | stew | lavin_magic
p38
tp39
a(I14
V1788
p40
Vteamred | random
p41
tp42
a(I15
V1788
p43
Vteamblack | pbgothic | stew | lavin_deranged
p44
tp45
a(I16
V1788
p46
Vteamred | pbgothic | stew | lavin_deranged
p47
tp48
a(I17
V1790
p49
Vteamblack | random
p50
tp51
a(I18
V1790
p52
Vteamred | pbgothic | stew | lavin_deranged
p53
tp54
a(I19
V1790
p55
Vteamblack | random
p56
tp57
a(I20
V1790
p58
Vteamred | pbgothic | stew | lavin_deranged
p59
tp60
a(I21
V1791
p61
Vteamblack | random
p62
tp63
a(I22
V1791
p64
Vteamblack | stangothic
p65
tp66
a(I23
V1791
p67
Vteamblack | pbgothic | stew | lavin_deranged
p68
tp69
a(I24
V1794
p70
Vteamred | pbgothic | stew | lavin_deranged
p71
tp72
a(I25
V1794
p73
Vteamred | random
p74
tp75
a(I26
V1794
p76
Vteamred | random
p77
tp78
a(I27
V1794
p79
Vteamblack | pbgothic | stew
p80
tp81
a(I28
V1794
p82
Vteamred | pbgothic
p83
tp84
a(I29
V1794
p85
Vteamblack | random
p86
tp87
a(I30
V1795
p88
Vteamred | random
p89
tp90
a(I31
V1796
p91
Vteamblack | pbgothic | lavin_magic
p92
tp93
a(I32
V1796
p94
Vteamblack | pbgothic | lavin_ghost
p95
tp96
a(I33
V1796
p97
Vteamblack | random
p98
tp99
a(I34
V1796
p100
Vteamblack | pbgothic | stew | lavin_magic
p101
tp102
a(I35
V1798
p103
Vteamred | pbgothic
p104
tp105
a(I36
V1799
p106
Vteamred | pbgothic | lavin_magic | lavin_deranged
p107
tp108
a(I37
V1799
p109
Vteamred | random
p110
tp111
a(I38
V1800
p112
Vteamred | random
p113
tp114
a(I39
V1800
p115
Vteamred | random
p116
tp117
a(I40
V1800
p118
Vlockandkey | teamblack
p119
tp120
a(I41
V1800
p121
Vteamred | lockandkey | stew
p122
tp123
a(I42
V1801
p124
Vteamred | random
p125
tp126
a(I43
V1801
p127
Vteamred | random
p128
tp129
a(I44
V1801
p130
Vteamblack | stangothic
p131
tp132
a(I45
V1802
p133
Vteamblack | stangothic
p134
tp135
a(I46
V1802
p136
Vteamred | random
p137
tp138
a(I47
V1803
p139
Vteamblack | random
p140
tp141
a(I48
V1803
p142
Vteamred | stangothic
p143
tp144
a(I49
V1803
p145
Vteamblack | stangothic
p146
tp147
a(I50
V1803
p148
Vteamblack | random
p149
tp150
a(I51
V1803
p151
Vteamblack | stangothic
p152
tp153
a(I52
V1803
p154
Vteamred | random
p155
tp156
a(I53
V1803
p157
Vteamblack | stangothic | stew
p158
tp159
a(I54
V1803
p160
Vteamblack | stangothic
p161
tp162
a(I55
V1803
p163
Vteamred | stangothic | stew
p164
tp165
a(I56
V1806
p166
Vteamred | random
p167
tp168
a(I57
V1806
p169
Vteamblack | stangothic | stew
p170
tp171
a(I58
V1807
p172
Vteamred | random
p173
tp174
a(I59
V1807
p175
Vteamred | stangothic
p176
tp177
a(I60
V1807
p178
Vteamblack | pbgothic
p179
tp180
a(I61
V1807
p181
Vteamred | stangothic
p182
tp183
a(I62
V1807
p184
Vteamblack | random
p185
tp186
a(I63
V1807
p187
Vteamred | random
p188
tp189
a(I64
V1809
p190
Vteamred | random
p191
tp192
a(I65
V1809
p193
Vteamred | stangothic
p194
tp195
a(I66
V1810
p196
Vteamblack | random
p197
tp198
a(I67
V1810
p199
Vteamblack | stangothic
p200
tp201
a(I68
V1812
p202
Vteamred | stangothic | stew
p203
tp204
a(I69
V1812
p205
Vteamblack | random
p206
tp207
a(I70
V1813
p208
Vteamblack | random
p209
tp210
a(I71
V1813
p211
Vteamred | stangothic
p212
tp213
a(I72
V1816
p214
Vteamblack | pbgothic | lavin_deranged
p215
tp216
a(I73
V1816
p217
Vteamblack | random
p218
tp219
a(I74
V1816
p220
Vteamred | random
p221
tp222
a(I75
V1818
p223
Vteamblack | pbgothic
p224
tp225
a(I76
V1818
p226
Vteamblack | lochorror | stew
p227
tp228
a(I77
V1818
p229
Vteamblack | random
p230
tp231
a(I78
V1818
p232
Vteamred | random
p233
tp234
a(I79
V1818
p235
Vstangothic | femscifi | teamred | stew
p236
tp237
a(I80
V1818
p238
Vteamred | lochorror | stew
p239
tp240
a(I81
V1818
p241
Vteamblack | stangothic
p242
tp243
a(I82
V1818
p244
Vteamred | lochorror
p245
tp246
a(I83
V1818
p247
Vteamblack | lochorror
p248
tp249
a(I84
V1820
p250
Vteamblack | pbgothic | lavin_magic | lavin_deranged
p251
tp252
a(I85
V1820
p253
Vteamblack | random
p254
tp255
a(I86
V1820
p256
Vteamblack | random
p257
tp258
a(I87
V1820
p259
Vteamblack | pbgothic | lavin_ghost | lavin_magic
p260
tp261
a(I88
V1820
p262
Vteamblack | pbgothic | stew | lavin_magic | lavin_deranged
p263
tp264
a(I89
V1821
p265
Vteamred | pbgothic | stew | lavin_magic | lavin_deranged
p266
tp267
a(I90
V1821
p268
Vteamred | random
p269
tp270
a(I91
V1821
p271
Vteamred | random
p272
tp273
a(I92
V1823
p274
Vteamblack | random
p275
tp276
a(I93
V1823
p277
Vteamblack | stangothic
p278
tp279
a(I94
V1823
p280
Vteamred | stangothic
p281
tp282
a(I95
V1824
p283
Vteamblack | random
p284
tp285
a(I96
V1826
p286
Vteamblack | random
p287
tp288
a(I97
V1826
p289
Vteamblack | femscifi | stew
p290
tp291
a(I98
V1826
p292
Vteamred | locghost | stew | lavin_ghost
p293
tp294
a(I99
V1826
p295
Vteamred | femscifi
p296
tp297
a(I100
V1826
p298
Vteamblack | pbgothic
p299
tp300
a(I101
V1826
p301
Vteamred | pbgothic | stew
p302
tp303
a(I102
V1826
p304
Vteamred | random
p305
tp306
a(I103
V1827
p307
Vteamblack | pbgothic | stew
p308
tp309
a(I104
V1827
p310
Vteamblack | random
p311
tp312
a(I105
V1827
p313
Vteamred | femscifi | stew
p314
tp315
a(I106
V1828
p316
Vnewgate | teamblack
p317
tp318
a(I107
V1828
p319
Vnewgate | teamblack
p320
tp321
a(I108
V1829
p322
Vteamred | det100
p323
tp324
a(I109
V1829
p325
Vteamred | random
p326
tp327
a(I110
V1830
p328
Vteamred | newgate | stew
p329
tp330
a(I111
V1832
p331
Vteamred | locdetmyst | stew
p332
tp333
a(I112
V1832
p334
Vteamblack | random
p335
tp336
a(I113
V1832
p337
Vteamred | random
p338
tp339
a(I114
V1832
p340
Vteamblack | random
p341
tp342
a(I115
V1832
p343
Vteamred | random
p344
tp345
a(I116
V1832
p346
Vteamblack | pbgothic | lavin_magic
p347
tp348
a(I117
V1832
p349
Vteamred | newgate
p350
tp351
a(I118
V1832
p352
Vteamred | locdetmyst | stew
p353
tp354
a(I119
V1832
p355
Vteamred | random
p356
tp357
a(I120
V1832
p358
Vteamred | locdetmyst | stew
p359
tp360
a(I121
V1833
p361
Vteamblack | pbgothic
p362
tp363
a(I122
V1833
p364
Vteamred | random
p365
tp366
a(I123
V1834
p367
Vlockandkey | teamblack
p368
tp369
a(I124
V1834
p370
Vteamblack | random
p371
tp372
a(I125
V1834
p373
Vteamred | newgate | stangothic | lavin_ghost | lavin_magic
p374
tp375
a(I126
V1836
p376
Vteamblack | locscifi
p377
tp378
a(I127
V1837
p379
Vnewgate | teamblack | stew
p380
tp381
a(I128
V1837
p382
Vteamblack | pbgothic | lavin_ghost
p383
tp384
a(I129
V1837
p385
Vteamblack | random
p386
tp387
a(I130
V1838
p388
Vteamred | pbgothic | stew
p389
tp390
a(I131
V1838
p391
Vteamblack | random
p392
tp393
a(I132
V1838
p394
Vteamblack | anatscifi | drop
p395
tp396
a(I133
V1838
p397
Vteamred | random
p398
tp399
a(I134
V1840
p400
Vteamred | random
p401
tp402
a(I135
V1840
p403
Vteamred | pbgothic | stew
p404
tp405
a(I136
V1840
p406
Vnewgate | teamblack
p407
tp408
a(I137
V1841
p409
Vteamblack | pbgothic | stew
p410
tp411
a(I138
V1841
p412
Vdet100 | teamblack
p413
tp414
a(I139
V1841
p415
Vteamblack | random
p416
tp417
a(I140
V1842
p418
Vteamred | det100 | stew
p419
tp420
a(I141
V1843
p421
Vteamred | pbgothic | lavin_ghost | lavin_magic | lavin_deranged
p422
tp423
a(I142
V1843
p424
Vteamblack | random
p425
tp426
a(I143
V1843
p427
Vteamblack | random
p428
tp429
a(I144
V1844
p430
Vteamred | pbgothic | stew
p431
tp432
a(I145
V1844
p433
Vteamblack | random
p434
tp435
a(I146
V1845
p436
Vteamred | det100
p437
tp438
a(I147
V1845
p439
Vdet100 | teamblack | drop
p440
tp441
a(I148
V1846
p442
Vteamred | random
p443
tp444
a(I149
V1846
p445
Vteamred | pbgothic | stew
p446
tp447
a(I150
V1846
p448
Vteamred | pbgothic | lavin_ghost | lavin_magic | lavin_deranged
p449
tp450
a(I151
V1847
p451
Vteamred | pbgothic | lavin_deranged
p452
tp453
a(I152
V1847
p454
Vteamred | pbgothic | stew | lavin_deranged
p455
tp456
a(I153
V1847
p457
Vteamred | random
p458
tp459
a(I154
V1847
p460
Vteamred | random
p461
tp462
a(I155
V1847
p463
Vteamblack | random
p464
tp465
a(I156
V1847
p466
Vteamred | pbgothic | stew | lavin_deranged
p467
tp468
a(I157
V1848
p469
Vteamred | locghost | stew | lavin_ghost
p470
tp471
a(I158
V1848
p472
Vteamblack | random
p473
tp474
a(I159
V1849
p475
Vteamblack | random
p476
tp477
a(I160
V1849
p478
Vteamblack | pbgothic | lavin_magic
p479
tp480
a(I161
V1850
p481
Vteamblack | pbgothic
p482
tp483
a(I162
V1850
p484
Vteamred | pbgothic | stew
p485
tp486
a(I163
V1850
p487
Vteamblack | random
p488
tp489
a(I164
V1850
p490
Vteamblack | random
p491
tp492
a(I165
V1851
p493
Vteamred | random
p494
tp495
a(I166
V1851
p496
Vteamblack | pbgothic
p497
tp498
a(I167
V1853
p499
Vteamred | random
p500
tp501
a(I168
V1853
p502
Vteamblack | pbgothic
p503
tp504
a(I169
V1853
p505
Vteamblack | random
p506
tp507
a(I170
V1853
p508
Vteamred | det100
p509
tp510
a(I171
V1858
p511
Vteamred | random
p512
tp513
a(I172
V1858
p514
Vteamblack | pbgothic
p515
tp516
a(I173
V1858
p517
Vteamblack | random
p518
tp519
a(I174
V1858
p520
Vteamblack | pbgothic | stew | lavin_magic
p521
tp522
a(I175
V1859
p523
Vdet100 | teamblack
p524
tp525
a(I176
V1859
p526
Vteamblack | locdetmyst
p527
tp528
a(I177
V1859
p529
Vteamred | random
p530
tp531
a(I178
V1859
p532
Vteamred | random
p533
tp534
a(I179
V1860
p535
Vteamred | sensation | pbgothic | stew | lavin_deranged
p536
tp537
a(I180
V1860
p538
Vteamred | random
p539
tp540
a(I181
V1861
p541
Vsensation | teamblack | stew
p542
tp543
a(I182
V1862
p544
Vteamred | sensation | stew
p545
tp546
a(I183
V1863
p547
Vteamred | random
p548
tp549
a(I184
V1863
p550
Vteamred | sensation | stew
p551
tp552
a(I185
V1863
p553
Vteamred | blcrime
p554
tp555
a(I186
V1863
p556
Vsensation | teamblack | stew
p557
tp558
a(I187
V1863
p559
Vsensation | teamblack | stew
p560
tp561
a(I188
V1864
p562
Vsensation | pbgothic | teamblack | stew
p563
tp564
a(I189
V1864
p565
Vteamred | sensation | pbgothic | stew
p566
tp567
a(I190
V1864
p568
Vteamred | sensation | pbgothic | stew
p569
tp570
a(I191
V1865
p571
Vteamred | locdetective | stew
p572
tp573
a(I192
V1865
p574
Vteamred | anatscifi | stew
p575
tp576
a(I193
V1865
p577
Vteamblack | pbgothic
p578
tp579
a(I194
V1865
p580
Vteamred | sensation | stew
p581
tp582
a(I195
V1865
p583
Vteamred | random
p584
tp585
a(I196
V1866
p586
Vteamred | det100
p587
tp588
a(I197
V1866
p589
Vteamred | sensation | pbgothic | stew
p590
tp591
a(I198
V1866
p592
Vteamblack | random
p593
tp594
a(I199
V1866
p595
Vteamred | lockandkey
p596
tp597
a(I200
V1867
p598
Vteamblack | random
p599
tp600
a(I201
V1867
p601
Vdet100 | teamblack
p602
tp603
a(I202
V1867
p604
Vteamred | sensation | stew
p605
tp606
a(I203
V1867
p607
Vteamblack | random
p608
tp609
a(I204
V1867
p610
Vdet100 | teamblack
p611
tp612
a(I205
V1868
p613
Vteamblack | random
p614
tp615
a(I206
V1868
p616
Vteamred | random
p617
tp618
a(I207
V1868
p619
Vteamred | det100 | pbgothic | lavin_deranged
p620
tp621
a(I208
V1868
p622
Vteamblack | random
p623
tp624
a(I209
V1868
p625
Vteamblack | anatscifi | stew
p626
tp627
a(I210
V1868
p628
Vdet100 | teamblack | stew
p629
tp630
a(I211
V1870
p631
Vteamred | anatscifi
p632
tp633
a(I212
V1871
p634
Vteamblack | random
p635
tp636
a(I213
V1871
p637
Vteamred | lockandkey | stew
p638
tp639
a(I214
V1871
p640
Vteamred | locdetective
p641
tp642
a(I215
V1871
p643
Vteamred | det100
p644
tp645
a(I216
V1871
p646
Vteamblack | random
p647
tp648
a(I217
V1871
p649
Vsensation | teamblack | stew
p650
tp651
a(I218
V1871
p652
Vteamblack | anatscifi
p653
tp654
a(I219
V1872
p655
Vteamblack | pbgothic | stew | lavin_ghost | lavin_magic | lavin_deranged
p656
tp657
a(I220
V1872
p658
Vteamblack | anatscifi | stew
p659
tp660
a(I221
V1874
p661
Vteamred | random
p662
tp663
a(I222
V1874
p664
Vteamred | locdetective
p665
tp666
a(I223
V1874
p667
Vteamred | locdetective
p668
tp669
a(I224
V1874
p670
Vteamblack | random
p671
tp672
a(I225
V1875
p673
Vteamred | locdetective | drop
p674
tp675
a(I226
V1875
p676
Vteamred | det100
p677
tp678
a(I227
V1875
p679
Vteamred | random
p680
tp681
a(I228
V1875
p682
Vteamblack | random
p683
tp684
a(I229
V1875
p685
Vteamblack | locdetmyst
p686
tp687
a(I230
V1875
p688
Vteamblack | random
p689
tp690
a(I231
V1875
p691
Vteamblack | locdetmyst | stew
p692
tp693
a(I232
V1876
p694
Vdet100 | teamblack | stew
p695
tp696
a(I233
V1876
p697
Vlocdetective | teamblack
p698
tp699
a(I234
V1876
p700
Vteamred | random
p701
tp702
a(I235
V1876
p703
Vteamred | random
p704
tp705
a(I236
V1877
p706
Vlockandkey | teamblack
p707
tp708
a(I237
V1877
p709
Vteamred | femscifi | stew
p710
tp711
a(I238
V1878
p712
Vteamblack | locdetective | drop
p713
tp714
a(I239
V1878
p715
Vteamred | random
p716
tp717
a(I240
V1878
p718
Vteamred | pbgothic | stew | lavin_ghost
p719
tp720
a(I241
V1878
p721
Vteamred | det100
p722
tp723
a(I242
V1879
p724
Vteamblack | random
p725
tp726
a(I243
V1879
p727
Vteamred | locdetective
p728
tp729
a(I244
V1880
p730
Vteamred | locdetective | drop
p731
tp732
a(I245
V1880
p733
Vsensation | teamblack | stew
p734
tp735
a(I246
V1880
p736
Vteamblack | random
p737
tp738
a(I247
V1880
p739
Vteamblack | anatscifi | locscifi
p740
tp741
a(I248
V1880
p742
Vteamblack | anatscifi | locscifi
p743
tp744
a(I249
V1880
p745
Vlockandkey | teamblack
p746
tp747
a(I250
V1880
p748
Vteamred | anatscifi
p749
tp750
a(I251
V1880
p751
Vteamblack | locscifi
p752
tp753
a(I252
V1880
p754
Vteamred | det100
p755
tp756
a(I253
V1881
p757
Vteamred | locdetective | stew
p758
tp759
a(I254
V1881
p760
Vteamblack | locdetective | drop
p761
tp762
a(I255
V1881
p763
Vteamblack | random
p764
tp765
a(I256
V1882
p766
Vteamred | pbgothic | stew
p767
tp768
a(I257
V1883
p769
Vdet100 | teamblack
p770
tp771
a(I258
V1883
p772
Vteamred | random
p773
tp774
a(I259
V1884
p775
Vteamred | lockandkey | stew
p776
tp777
a(I260
V1885
p778
Vteamred | pbgothic | lavin_magic
p779
tp780
a(I261
V1885
p781
Vteamred | random
p782
tp783
a(I262
V1885
p784
Vdet100 | teamblack
p785
tp786
a(I263
V1886
p787
Vteamred | random
p788
tp789
a(I264
V1886
p790
Vteamred | det100
p791
tp792
a(I265
V1886
p793
Vteamblack | locdetective | drop
p794
tp795
a(I266
V1886
p796
Vteamred | femscifi | locscifi
p797
tp798
a(I267
V1886
p799
Vteamred | anatscifi | locscifi
p800
tp801
a(I268
V1886
p802
Vteamred | pbgothic | anatscifi | stew
p803
tp804
a(I269
V1887
p805
Vteamred | random
p806
tp807
a(I270
V1887
p808
Vteamblack | locghost | lavin_ghost
p809
tp810
a(I271
V1887
p811
Vteamred | anatscifi
p812
tp813
a(I272
V1887
p814
Vdet100 | teamblack
p815
tp816
a(I273
V1887
p817
Vteamblack | random
p818
tp819
a(I274
V1888
p820
Vteamblack | locdetmyst
p821
tp822
a(I275
V1888
p823
Vteamblack | anatscifi | locscifi
p824
tp825
a(I276
V1888
p826
Vteamred | locghost | lavin_ghost
p827
tp828
a(I277
V1888
p829
Vteamred | pbgothic | lavin_ghost
p830
tp831
a(I278
V1888
p832
Vteamblack | anatscifi | stew
p833
tp834
a(I279
V1888
p835
Vteamred | det100
p836
tp837
a(I280
V1888
p838
Vteamblack | locghost | stew | lavin_ghost
p839
tp840
a(I281
V1888
p841
Vteamred | locghost | stew | lavin_ghost
p842
tp843
a(I282
V1888
p844
Vteamblack | random
p845
tp846
a(I283
V1888
p847
Vteamred | det100 | stew
p848
tp849
a(I284
V1888
p850
Vteamblack | pbgothic | stew
p851
tp852
a(I285
V1888
p853
Vteamred | locdetmyst
p854
tp855
a(I286
V1888
p856
Vteamred | anatscifi | locscifi | stew
p857
tp858
a(I287
V1888
p859
Vteamblack | random
p860
tp861
a(I288
V1888
p862
Vteamblack | locdetmyst | stew
p863
tp864
a(I289
V1888
p865
Vteamred | supernatural | random
p866
tp867
a(I290
V1888
p868
Vteamblack | locghost | stew | lavin_ghost
p869
tp870
a(I291
V1888
p871
Vteamblack | locghost | lavin_ghost
p872
tp873
a(I292
V1889
p874
Vteamred | anatscifi
p875
tp876
a(I293
V1889
p877
Vteamblack | anatscifi | stew
p878
tp879
a(I294
V1890
p880
Vteamred | pbgothic | stew | lavin_ghost
p881
tp882
a(I295
V1890
p883
Vteamblack | locghost | lavin_ghost
p884
tp885
a(I296
V1890
p886
Vteamred | random
p887
tp888
a(I297
V1890
p889
Vteamblack | locghost | stew | lavin_ghost
p890
tp891
a(I298
V1890
p892
Vteamred | anatscifi
p893
tp894
a(I299
V1891
p895
Vteamblack | pbgothic | lavin_magic | lavin_deranged
p896
tp897
a(I300
V1891
p898
Vteamblack | locscifi | stew
p899
tp900
a(I301
V1891
p901
Vteamblack | pbgothic | stew
p902
tp903
a(I302
V1891
p904
Vteamblack | locdetmyst | stew
p905
tp906
a(I303
V1892
p907
Vteamblack | random
p908
tp909
a(I304
V1892
p910
Vteamred | det100
p911
tp912
a(I305
V1892
p913
Vteamblack | locscifi
p914
tp915
a(I306
V1892
p916
Vteamred | det100 | stew
p917
tp918
a(I307
V1892
p919
Vteamred | random
p920
tp921
a(I308
V1892
p922
Vteamblack | pbgothic | stew
p923
tp924
a(I309
V1893
p925
Vteamblack | anatscifi
p926
tp927
a(I310
V1893
p928
Vteamblack | anatscifi
p929
tp930
a(I311
V1893
p931
Vteamblack | anatscifi
p932
tp933
a(I312
V1893
p934
Vteamblack | pbgothic | lavin_ghost
p935
tp936
a(I313
V1894
p937
Vdet100 | teamblack
p938
tp939
a(I314
V1894
p940
Vteamblack | random
p941
tp942
a(I315
V1894
p943
Vdet100 | teamblack
p944
tp945
a(I316
V1894
p946
Vteamblack | anatscifi | stew
p947
tp948
a(I317
V1894
p949
Vteamblack | random
p950
tp951
a(I318
V1894
p952
Vteamblack | random
p953
tp954
a(I319
V1894
p955
Vteamblack | locdetmyst
p956
tp957
a(I320
V1895
p958
Vteamred | pbgothic | lavin_magic
p959
tp960
a(I321
V1895
p961
Vteamred | locscifi | stew
p962
tp963
a(I322
V1895
p964
Vteamred | anatscifi | locscifi | stew
p965
tp966
a(I323
V1896
p967
Vteamred | det100
p968
tp969
a(I324
V1896
p970
Vteamred | random
p971
tp972
a(I325
V1896
p973
Vteamred | lockandkey
p974
tp975
a(I326
V1897
p976
Vteamblack | random
p977
tp978
a(I327
V1897
p979
Vteamblack | pbgothic | stew | lavin_magic
p980
tp981
a(I328
V1897
p982
Vteamred | det100 | stew
p983
tp984
a(I329
V1897
p985
Vteamred | femscifi
p986
tp987
a(I330
V1898
p988
Vteamred | locdetmyst
p989
tp990
a(I331
V1898
p991
Vteamred | locghost | stew | lavin_ghost
p992
tp993
a(I332
V1898
p994
Vteamblack | locghost | lavin_ghost
p995
tp996
a(I333
V1898
p997
Vteamblack | random
p998
tp999
a(I334
V1898
p1000
Vteamred | pbgothic | lavin_ghost | lavin_magic
p1001
tp1002
a(I335
V1898
p1003
Vteamblack | anatscifi
p1004
tp1005
a(I336
V1898
p1006
Vteamred | random
p1007
tp1008
a(I337
V1899
p1009
Vteamred | random
p1010
tp1011
a(I338
V1899
p1012
Vdet100 | teamblack
p1013
tp1014
a(I339
V1899
p1015
Vteamred | det100
p1016
tp1017
a(I340
V1899
p1018
Vteamred | locscifi
p1019
tp1020
a(I341
V1900
p1021
Vteamblack | random
p1022
tp1023
a(I342
V1900
p1024
Vteamblack | locdetective | drop
p1025
tp1026
a(I343
V1900
p1027
Vteamblack | locdetmyst | stew
p1028
tp1029
a(I344
V1900
p1030
Vteamblack | locdetective | drop
p1031
tp1032
a(I345
V1900
p1033
Vteamblack | locdetective | drop
p1034
tp1035
a(I346
V1900
p1036
Vteamred | locscifi | stew
p1037
tp1038
a(I347
V1901
p1039
Vteamblack | anatscifi | locscifi
p1040
tp1041
a(I348
V1901
p1042
Vteamred | femscifi
p1043
tp1044
a(I349
V1901
p1045
Vchifantasy | teamblack | chiscifi
p1046
tp1047
a(I350
V1902
p1048
Vteamred | locscifi
p1049
tp1050
a(I351
V1903
p1051
Vteamblack | locdetmyst
p1052
tp1053
a(I352
V1903
p1054
Vteamred | random
p1055
tp1056
a(I353
V1903
p1057
Vteamblack | pbgothic | lavin_ghost
p1058
tp1059
a(I354
V1903
p1060
Vteamred | lockandkey | stew
p1061
tp1062
a(I355
V1903
p1063
Vteamblack | random
p1064
tp1065
a(I356
V1904
p1066
Vteamred | locscifi
p1067
tp1068
a(I357
V1904
p1069
Vdet100 | teamblack
p1070
tp1071
a(I358
V1904
p1072
Vteamblack | anatscifi | locscifi
p1073
tp1074
a(I359
V1904
p1075
Vteamred | locdetmyst | juvenile | drop
p1076
tp1077
a(I360
V1904
p1078
Vteamred | locghost | stew | lavin_ghost
p1079
tp1080
a(I361
V1904
p1081
Vteamred | random
p1082
tp1083
a(I362
V1905
p1084
Vteamblack | anatscifi | stew
p1085
tp1086
a(I363
V1905
p1087
Vteamblack | random
p1088
tp1089
a(I364
V1905
p1090
Vteamred | locghost | lavin_ghost
p1091
tp1092
a(I365
V1905
p1093
Vdet100 | teamblack | stew
p1094
tp1095
a(I366
V1905
p1096
Vteamblack | pbgothic | stew
p1097
tp1098
a(I367
V1906
p1099
Vteamblack | locscifi | stew
p1100
tp1101
a(I368
V1906
p1102
Vteamblack | pbgothic | stew | lavin_ghost
p1103
tp1104
a(I369
V1906
p1105
Vteamred | det100 | stew
p1106
tp1107
a(I370
V1906
p1108
Vteamred | locghost | stew | lavin_ghost
p1109
tp1110
a(I371
V1906
p1111
Vteamblack | random
p1112
tp1113
a(I372
V1907
p1114
Vteamred | det100 | stew
p1115
tp1116
a(I373
V1907
p1117
Vdet100 | teamblack
p1118
tp1119
a(I374
V1907
p1120
Vteamred | locdetmyst | juvenile | drop
p1121
tp1122
a(I375
V1907
p1123
Vteamred | random
p1124
tp1125
a(I376
V1907
p1126
Vteamred | random
p1127
tp1128
a(I377
V1908
p1129
Vteamred | random
p1130
tp1131
a(I378
V1908
p1132
Vdet100 | teamblack | stew
p1133
tp1134
a(I379
V1908
p1135
Vteamblack | locscifi
p1136
tp1137
a(I380
V1908
p1138
Vteamred | det100 | locdetmyst
p1139
tp1140
a(I381
V1908
p1141
Vteamred | random
p1142
tp1143
a(I382
V1909
p1144
Vteamblack | random
p1145
tp1146
a(I383
V1909
p1147
Vteamred | det100 | stew
p1148
tp1149
a(I384
V1909
p1150
Vdet100 | teamblack | stew
p1151
tp1152
a(I385
V1909
p1153
Vteamblack | anatscifi | locscifi
p1154
tp1155
a(I386
V1909
p1156
Vdet100 | teamblack
p1157
tp1158
a(I387
V1909
p1159
Vteamblack | random
p1160
tp1161
a(I388
V1909
p1162
Vdet100 | teamblack
p1163
tp1164
a(I389
V1909
p1165
Vteamblack | random
p1166
tp1167
a(I390
V1910
p1168
Vteamblack | random
p1169
tp1170
a(I391
V1910
p1171
Vteamred | pbgothic | lavin_ghost
p1172
tp1173
a(I392
V1910
p1174
Vteamred | det100
p1175
tp1176
a(I393
V1910
p1177
Vteamblack | random
p1178
tp1179
a(I394
V1910
p1180
Vdet100 | teamblack
p1181
tp1182
a(I395
V1910
p1183
Vteamred | det100
p1184
tp1185
a(I396
V1910
p1186
Vteamred | random
p1187
tp1188
a(I397
V1911
p1189
Vteamblack | random
p1190
tp1191
a(I398
V1911
p1192
Vteamred | det100 | stew
p1193
tp1194
a(I399
V1911
p1195
Vdet100 | teamblack
p1196
tp1197
a(I400
V1911
p1198
Vteamblack | random
p1199
tp1200
a(I401
V1911
p1201
Vteamred | random
p1202
tp1203
a(I402
V1911
p1204
Vteamred | det100 | locdetmyst
p1205
tp1206
a(I403
V1911
p1207
Vteamred | random
p1208
tp1209
a(I404
V1911
p1210
Vteamred | pbgothic | stew | lavin_ghost
p1211
tp1212
a(I405
V1911
p1213
Vteamblack | locdetmyst | juvenile | drop
p1214
tp1215
a(I406
V1912
p1216
Vteamred | anatscifi
p1217
tp1218
a(I407
V1912
p1219
Vdet100 | teamblack
p1220
tp1221
a(I408
V1912
p1222
Vteamred | locdetective | stew
p1223
tp1224
a(I409
V1912
p1225
Vteamblack | random
p1226
tp1227
a(I410
V1912
p1228
Vteamred | anatscifi | stew
p1229
tp1230
a(I411
V1912
p1231
Vteamblack | anatscifi | stew
p1232
tp1233
a(I412
V1912
p1234
Vteamblack | locghost | lavin_ghost
p1235
tp1236
a(I413
V1913
p1237
Vteamblack | random
p1238
tp1239
a(I414
V1913
p1240
Vteamblack | random
p1241
tp1242
a(I415
V1913
p1243
Vteamblack | locdetmyst | stew
p1244
tp1245
a(I416
V1913
p1246
Vdet100 | teamblack
p1247
tp1248
a(I417
V1913
p1249
Vteamred | locdetmyst | juvenile | drop
p1250
tp1251
a(I418
V1913
p1252
Vteamred | anatscifi
p1253
tp1254
a(I419
V1913
p1255
Vteamred | random
p1256
tp1257
a(I420
V1913
p1258
Vteamred | locghost | lavin_ghost
p1259
tp1260
a(I421
V1913
p1261
Vdet100 | teamblack
p1262
tp1263
a(I422
V1913
p1264
Vteamred | random
p1265
tp1266
a(I423
V1913
p1267
Vteamblack | locdetmyst | juvenile | drop
p1268
tp1269
a(I424
V1913
p1270
Vteamred | det100
p1271
tp1272
a(I425
V1913
p1273
Vteamblack | locdetmyst | juvenile | drop
p1274
tp1275
a(I426
V1913
p1276
Vteamred | det100
p1277
tp1278
a(I427
V1913
p1279
Vteamblack | random
p1280
tp1281
a(I428
V1914
p1282
Vteamred | random
p1283
tp1284
a(I429
V1914
p1285
Vteamblack | random
p1286
tp1287
a(I430
V1914
p1288
Vteamred | det100
p1289
tp1290
a(I431
V1914
p1291
Vteamblack | random
p1292
tp1293
a(I432
V1914
p1294
Vdet100 | teamblack
p1295
tp1296
a(I433
V1914
p1297
Vteamred | locghost | lavin_ghost
p1298
tp1299
a(I434
V1914
p1300
Vdet100 | teamblack
p1301
tp1302
a(I435
V1915
p1303
Vteamred | det100 | stew
p1304
tp1305
a(I436
V1915
p1306
Vteamred | random
p1307
tp1308
a(I437
V1915
p1309
Vteamred | random
p1310
tp1311
a(I438
V1915
p1312
Vteamred | random
p1313
tp1314
a(I439
V1915
p1315
Vteamblack | locdetmyst | juvenile | drop
p1316
tp1317
a(I440
V1915
p1318
Vteamblack | locdetmyst | juvenile | drop
p1319
tp1320
a(I441
V1915
p1321
Vteamblack | locdetmyst | juvenile | drop
p1322
tp1323
a(I442
V1916
p1324
Vteamred | locdetmyst | juvenile | drop
p1325
tp1326
a(I443
V1916
p1327
Vteamred | det100
p1328
tp1329
a(I444
V1916
p1330
Vteamred | random
p1331
tp1332
a(I445
V1916
p1333
Vteamblack | random
p1334
tp1335
a(I446
V1916
p1336
Vdet100 | teamblack | stew
p1337
tp1338
a(I447
V1917
p1339
Vteamred | locdetmyst
p1340
tp1341
a(I448
V1917
p1342
Vteamred | random
p1343
tp1344
a(I449
V1917
p1345
Vteamred | random
p1346
tp1347
a(I450
V1917
p1348
Vteamblack | locdetmyst | juvenile | drop
p1349
tp1350
a(I451
V1917
p1351
Vteamblack | locdetmyst | juvenile | drop
p1352
tp1353
a(I452
V1917
p1354
Vteamblack | locdetmyst | juvenile | drop
p1355
tp1356
a(I453
V1918
p1357
Vdet100 | teamblack | stew
p1358
tp1359
a(I454
V1918
p1360
Vteamblack | locdetmyst | juvenile | drop
p1361
tp1362
a(I455
V1918
p1363
Vteamblack | locghost | stew | lavin_ghost
p1364
tp1365
a(I456
V1918
p1366
Vteamred | random
p1367
tp1368
a(I457
V1918
p1369
Vteamred | random
p1370
tp1371
a(I458
V1918
p1372
Vteamblack | locdetmyst | juvenile | drop
p1373
tp1374
a(I459
V1918
p1375
Vdet100 | teamblack
p1376
tp1377
a(I460
V1918
p1378
Vteamred | random
p1379
tp1380
a(I461
V1919
p1381
Vteamred | det100
p1382
tp1383
a(I462
V1919
p1384
Vteamred | pbgothic | lavin_ghost
p1385
tp1386
a(I463
V1919
p1387
Vteamblack | locdetmyst | juvenile | drop
p1388
tp1389
a(I464
V1919
p1390
Vteamblack | locghost | stew | lavin_ghost
p1391
tp1392
a(I465
V1919
p1393
Vteamred | random
p1394
tp1395
a(I466
V1919
p1396
Vteamblack | locdetmyst | juvenile | drop
p1397
tp1398
a(I467
V1919
p1399
Vteamred | pbgothic
p1400
tp1401
a(I468
V1920
p1402
Vteamblack | locdetmyst | juvenile | drop
p1403
tp1404
a(I469
V1920
p1405
Vteamblack | random
p1406
tp1407
a(I470
V1920
p1408
Vteamred | random
p1409
tp1410
a(I471
V1920
p1411
Vteamred | chifantasy | anatscifi | stew
p1412
tp1413
a(I472
V1920
p1414
Vchirandom | teamred
p1415
tp1416
a(I473
V1920
p1417
Vteamred | locdetmyst | juvenile | drop
p1418
tp1419
a(I474
V1920
p1420
Vchirandom | teamred
p1421
tp1422
a(I475
V1920
p1423
Vteamred | locghost | stew | lavin_ghost
p1424
tp1425
a(I476
V1920
p1426
Vchifantasy | teamblack
p1427
tp1428
a(I477
V1920
p1429
Vchiutopia | teamblack
p1430
tp1431
a(I478
V1920
p1432
Vchirandom | teamred
p1433
tp1434
a(I479
V1920
p1435
Vdet100 | teamblack
p1436
tp1437
a(I480
V1920
p1438
Vteamblack | anatscifi | stew
p1439
tp1440
a(I481
V1920
p1441
Vdet100 | teamblack | cozy
p1442
tp1443
a(I482
V1920
p1444
Vteamred | random
p1445
tp1446
a(I483
V1920
p1447
Vchirandom | teamblack
p1448
tp1449
a(I484
V1921
p1450
Vteamred | random
p1451
tp1452
a(I485
V1921
p1453
Vchirandom | teamred
p1454
tp1455
a(I486
V1921
p1456
Vchirandom | chifantasy | teamblack
p1457
tp1458
a(I487
V1921
p1459
Vteamred | locdetmyst | juvenile | drop
p1460
tp1461
a(I488
V1921
p1462
Vteamblack | chiscifi
p1463
tp1464
a(I489
V1921
p1465
Vchirandom | teamred
p1466
tp1467
a(I490
V1921
p1468
Vteamred | locghost | stew | lavin_ghost
p1469
tp1470
a(I491
V1921
p1471
Vteamred | locghost | lavin_ghost
p1472
tp1473
a(I492
V1921
p1474
Vteamred | random
p1475
tp1476
a(I493
V1921
p1477
Vchirandom | teamred
p1478
tp1479
a(I494
V1921
p1480
Vteamred | chifantasy
p1481
tp1482
a(I495
V1921
p1483
Vchirandom | teamred
p1484
tp1485
a(I496
V1922
p1486
Vteamred | random
p1487
tp1488
a(I497
V1922
p1489
Vteamred | femscifi | anatscifi
p1490
tp1491
a(I498
V1922
p1492
Vchirandom | teamred
p1493
tp1494
a(I499
V1922
p1495
Vteamblack | locghost | stew | lavin_ghost
p1496
tp1497
a(I500
V1922
p1498
Vchirandom | teamred
p1499
tp1500
a(I501
V1922
p1501
Vteamblack | locdetmyst | locghost | stew | lavin_ghost
p1502
tp1503
a(I502
V1922
p1504
Vteamred | random
p1505
tp1506
a(I503
V1922
p1507
Vteamred | random
p1508
tp1509
a(I504
V1922
p1510
Vteamred | locdetmyst
p1511
tp1512
a(I505
V1922
p1513
Vteamred | det100
p1514
tp1515
a(I506
V1922
p1516
Vchirandom | teamblack
p1517
tp1518
a(I507
V1922
p1519
Vchirandom | teamred | juvenile | drop
p1520
tp1521
a(I508
V1922
p1522
Vteamblack | chiscifi | stew
p1523
tp1524
a(I509
V1922
p1525
Vteamred | random
p1526
tp1527
a(I510
V1922
p1528
Vchirandom | teamred
p1529
tp1530
a(I511
V1922
p1531
Vchirandom | teamred
p1532
tp1533
a(I512
V1922
p1534
Vteamblack | random
p1535
tp1536
a(I513
V1922
p1537
Vteamred | locdetmyst | juvenile | drop
p1538
tp1539
a(I514
V1922
p1540
Vteamblack | locdetmyst | juvenile | drop
p1541
tp1542
a(I515
V1922
p1543
Vchirandom | teamblack
p1544
tp1545
a(I516
V1922
p1546
Vteamblack | locdetmyst | locghost | lavin_ghost
p1547
tp1548
a(I517
V1922
p1549
Vteamblack | locdetmyst | locghost | lavin_ghost
p1550
tp1551
a(I518
V1922
p1552
Vteamblack | locdetmyst | locghost | lavin_ghost
p1553
tp1554
a(I519
V1923
p1555
Vteamred | chimyst
p1556
tp1557
a(I520
V1923
p1558
Vdet100 | teamblack
p1559
tp1560
a(I521
V1923
p1561
Vteamred | chimyst
p1562
tp1563
a(I522
V1923
p1564
Vteamred | chiscifi | stew
p1565
tp1566
a(I523
V1923
p1567
Vteamred | chiscifi | stew
p1568
tp1569
a(I524
V1924
p1570
Vchirandom | teamblack
p1571
tp1572
a(I525
V1924
p1573
Vteamblack | chimyst
p1574
tp1575
a(I526
V1924
p1576
Vteamblack | chimyst
p1577
tp1578
a(I527
V1925
p1579
Vteamblack | chiscifi | stew
p1580
tp1581
a(I528
V1925
p1582
Vchirandom | teamred
p1583
tp1584
a(I529
V1925
p1585
Vchirandom | det100 | teamblack | stew
p1586
tp1587
a(I530
V1925
p1588
Vteamred | chimyst
p1589
tp1590
a(I531
V1925
p1591
Vchirandom | det100 | teamblack
p1592
tp1593
a(I532
V1926
p1594
Vteamred | chifantasy
p1595
tp1596
a(I533
V1926
p1597
Vchirandom | teamblack | chimyst
p1598
tp1599
a(I534
V1926
p1600
Vteamred | det100
p1601
tp1602
a(I535
V1926
p1603
Vteamred | det100 | chimyst
p1604
tp1605
a(I536
V1927
p1606
Vchifantasy | teamblack
p1607
tp1608
a(I537
V1927
p1609
Vchirandom | chifantasy | teamblack
p1610
tp1611
a(I538
V1927
p1612
Vchirandom | teamblack
p1613
tp1614
a(I539
V1927
p1615
Vchirandom | teamblack
p1616
tp1617
a(I540
V1927
p1618
Vteamred | chimyst
p1619
tp1620
a(I541
V1927
p1621
Vchirandom | teamred | chimyst
p1622
tp1623
a(I542
V1927
p1624
Vteamblack | pbgothic | lavin_magic
p1625
tp1626
a(I543
V1928
p1627
Vteamblack | chimyst
p1628
tp1629
a(I544
V1928
p1630
Vteamblack | chiscifi
p1631
tp1632
a(I545
V1928
p1633
Vteamblack | chiscifi
p1634
tp1635
a(I546
V1928
p1636
Vteamred | chimyst
p1637
tp1638
a(I547
V1928
p1639
Vchirandom | teamred | det100
p1640
tp1641
a(I548
V1928
p1642
Vteamred | chifantasy | chiscifi
p1643
tp1644
a(I549
V1928
p1645
Vteamblack | chimyst | stew
p1646
tp1647
a(I550
V1929
p1648
Vteamred | chiscifi | stew
p1649
tp1650
a(I551
V1929
p1651
Vchirandom | teamblack
p1652
tp1653
a(I552
V1929
p1654
Vteamblack | chiscifi | stew
p1655
tp1656
a(I553
V1929
p1657
Vhardboiled | det100 | teamblack | chimyst
p1658
tp1659
a(I554
V1929
p1660
Vteamred | chimyst | cozy
p1661
tp1662
a(I555
V1929
p1663
Vteamblack | chimyst
p1664
tp1665
a(I556
V1929
p1666
Vteamred | chiscifi | stew
p1667
tp1668
a(I557
V1929
p1669
Vteamred | chimyst
p1670
tp1671
a(I558
V1929
p1672
Vchirandom | teamblack | chimyst | stew
p1673
tp1674
a(I559
V1930
p1675
Vteamblack | chimyst
p1676
tp1677
a(I560
V1930
p1678
Vchirandom | teamblack
p1679
tp1680
a(I561
V1930
p1681
Vteamblack | chimyst | cozy
p1682
tp1683
a(I562
V1930
p1684
Vchifantasy | teamblack
p1685
tp1686
a(I563
V1930
p1687
Vchirandom | teamblack
p1688
tp1689
a(I564
V1930
p1690
Vteamred | chifantasy | chiscifi
p1691
tp1692
a(I565
V1930
p1693
Vteamred | chiscifi | stew
p1694
tp1695
a(I566
V1930
p1696
Vteamred | chiscifi | stew
p1697
tp1698
a(I567
V1930
p1699
Vteamred | chimyst | stew
p1700
tp1701
a(I568
V1930
p1702
Vhardboiled | det100 | teamblack | chimyst
p1703
tp1704
a(I569
V1930
p1705
Vteamblack | chiscifi
p1706
tp1707
a(I570
V1931
p1708
Vchirandom | teamblack
p1709
tp1710
a(I571
V1931
p1711
Vchifantasy | teamblack | chiscifi
p1712
tp1713
a(I572
V1931
p1714
Vteamblack | chiscifi
p1715
tp1716
a(I573
V1931
p1717
Vdet100 | teamblack
p1718
tp1719
a(I574
V1931
p1720
Vteamred | det100 | chimyst
p1721
tp1722
a(I575
V1931
p1723
Vchirandom | teamred
p1724
tp1725
a(I576
V1931
p1726
Vchifantasy | teamblack | chiscifi
p1727
tp1728
a(I577
V1931
p1729
Vteamblack | chiscifi
p1730
tp1731
a(I578
V1931
p1732
Vteamred | chiscifi
p1733
tp1734
a(I579
V1931
p1735
Vchirandom | teamblack | chimyst
p1736
tp1737
a(I580
V1931
p1738
Vteamblack | chiscifi
p1739
tp1740
a(I581
V1931
p1741
Vteamblack | chimyst | stew
p1742
tp1743
a(I582
V1931
p1744
Vchirandom | teamblack
p1745
tp1746
a(I583
V1932
p1747
Vteamblack | chimyst | stew
p1748
tp1749
a(I584
V1932
p1750
Vteamred | chiscifi
p1751
tp1752
a(I585
V1932
p1753
Vchirandom | teamred
p1754
tp1755
a(I586
V1932
p1756
Vchirandom | teamred
p1757
tp1758
a(I587
V1932
p1759
Vchifantasy | teamblack
p1760
tp1761
a(I588
V1932
p1762
Vchiutopia | teamblack | chiscifi
p1763
tp1764
a(I589
V1932
p1765
Vchirandom | teamred
p1766
tp1767
a(I590
V1932
p1768
Vchirandom | teamred
p1769
tp1770
a(I591
V1932
p1771
Vteamblack | pbgothic
p1772
tp1773
a(I592
V1933
p1774
Vchirandom | teamred | chimyst
p1775
tp1776
a(I593
V1933
p1777
Vchiutopia | chifantasy | teamblack
p1778
tp1779
a(I594
V1933
p1780
Vchiutopia | teamblack
p1781
tp1782
a(I595
V1933
p1783
Vteamred | chimyst
p1784
tp1785
a(I596
V1933
p1786
Vchifantasy | teamblack | chihorror | stew
p1787
tp1788
a(I597
V1933
p1789
Vchirandom | teamred | chimyst
p1790
tp1791
a(I598
V1934
p1792
Vchirandom | teamred | chimyst
p1793
tp1794
a(I599
V1934
p1795
Vchirandom | teamred
p1796
tp1797
a(I600
V1934
p1798
Vteamblack | chimyst
p1799
tp1800
a(I601
V1934
p1801
Vteamblack | pbgothic | stew
p1802
tp1803
a(I602
V1935
p1804
Vchirandom | teamblack
p1805
tp1806
a(I603
V1935
p1807
Vchirandom | teamred
p1808
tp1809
a(I604
V1935
p1810
Vchirandom | teamblack | chimyst | cozy
p1811
tp1812
a(I605
V1935
p1813
Vchirandom | teamblack
p1814
tp1815
a(I606
V1935
p1816
Vteamred | chiscifi
p1817
tp1818
a(I607
V1935
p1819
Vchifantasy | teamblack
p1820
tp1821
a(I608
V1936
p1822
Vchirandom | teamred | chimyst | stew
p1823
tp1824
a(I609
V1936
p1825
Vchirandom | teamred
p1826
tp1827
a(I610
V1936
p1828
Vteamblack | chimyst
p1829
tp1830
a(I611
V1937
p1831
Vchirandom | teamblack
p1832
tp1833
a(I612
V1937
p1834
Vteamred | chiscifi
p1835
tp1836
a(I613
V1937
p1837
Vteamred | det100 | stew
p1838
tp1839
a(I614
V1937
p1840
Vchirandom | teamred
p1841
tp1842
a(I615
V1937
p1843
Vchirandom | teamblack | chiscifi
p1844
tp1845
a(I616
V1937
p1846
Vchirandom | teamred | chimyst | cozy
p1847
tp1848
a(I617
V1937
p1849
Vchirandom | teamred
p1850
tp1851
a(I618
V1938
p1852
Vchiutopia | teamblack
p1853
tp1854
a(I619
V1938
p1855
Vchirandom | chiutopia | teamblack | chiscifi | stew
p1856
tp1857
a(I620
V1938
p1858
Vchirandom | teamred
p1859
tp1860
a(I621
V1938
p1861
Vteamred | pbgothic | stew
p1862
tp1863
a(I622
V1938
p1864
Vteamblack | chimyst | stew
p1865
tp1866
a(I623
V1938
p1867
Vteamred | chiscifi
p1868
tp1869
a(I624
V1938
p1870
Vdet100 | teamblack
p1871
tp1872
a(I625
V1938
p1873
Vteamred | chiscifi
p1874
tp1875
a(I626
V1939
p1876
Vteamred | chimyst
p1877
tp1878
a(I627
V1939
p1879
Vteamblack | chimyst
p1880
tp1881
a(I628
V1939
p1882
Vchirandom | teamred
p1883
tp1884
a(I629
V1939
p1885
Vteamred | det100 | chimyst
p1886
tp1887
a(I630
V1939
p1888
Vhardboiled | det100 | teamblack | chimyst
p1889
tp1890
a(I631
V1940
p1891
Vdet100 | teamblack | hardboiled | stew
p1892
tp1893
a(I632
V1940
p1894
Vteamred | chimyst | stew
p1895
tp1896
a(I633
V1940
p1897
Vteamred | chimyst | stew
p1898
tp1899
a(I634
V1940
p1900
Vchirandom | teamblack
p1901
tp1902
a(I635
V1940
p1903
Vchirandom | teamred
p1904
tp1905
a(I636
V1941
p1906
Vchirandom | teamblack | chimyst
p1907
tp1908
a(I637
V1941
p1909
Vteamred | chiscifi | stew
p1910
tp1911
a(I638
V1941
p1912
Vchirandom | teamred
p1913
tp1914
a(I639
V1942
p1915
Vchirandom | chifantasy | teamblack
p1916
tp1917
a(I640
V1942
p1918
Vchirandom | teamblack
p1919
tp1920
a(I641
V1942
p1921
Vteamred | chimyst | chiscifi | stew
p1922
tp1923
a(I642
V1942
p1924
Vchirandom | teamred | chimyst
p1925
tp1926
a(I643
V1942
p1927
Vdet100 | teamblack | cozy
p1928
tp1929
a(I644
V1942
p1930
Vteamred | det100 | chimyst
p1931
tp1932
a(I645
V1942
p1933
Vdet100 | teamblack | chimyst
p1934
tp1935
a(I646
V1942
p1936
Vchirandom | teamblack | chimyst | cozy
p1937
tp1938
a(I647
V1942
p1939
Vchirandom | teamblack | chimyst | stew
p1940
tp1941
a(I648
V1942
p1942
Vteamred | chiscifi
p1943
tp1944
a(I649
V1943
p1945
Vchirandom | teamred | chimyst
p1946
tp1947
a(I650
V1943
p1948
Vchirandom | teamred | chimyst
p1949
tp1950
a(I651
V1943
p1951
Vchirandom | teamblack
p1952
tp1953
a(I652
V1943
p1954
Vhardboiled | chimyst | teamred
p1955
tp1956
a(I653
V1943
p1957
Vteamred | det100 | chimyst | cozy | stew
p1958
tp1959
a(I654
V1944
p1960
Vteamred | chifantasy | chiscifi
p1961
tp1962
a(I655
V1944
p1963
Vchirandom | teamred | chimyst
p1964
tp1965
a(I656
V1944
p1966
Vchifantasy | teamblack | chimyst
p1967
tp1968
a(I657
V1944
p1969
Vchirandom | teamred
p1970
tp1971
a(I658
V1944
p1972
Vchirandom | teamred
p1973
tp1974
a(I659
V1945
p1975
Vchifantasy | teamblack | chiscifi
p1976
tp1977
a(I660
V1945
p1978
Vhardboiled | teamblack | chimyst
p1979
tp1980
a(I661
V1945
p1981
Vteamred | chimyst
p1982
tp1983
a(I662
V1945
p1984
Vchiutopia | teamblack
p1985
tp1986
a(I663
V1945
p1987
Vchirandom | teamred
p1988
tp1989
a(I664
V1945
p1990
Vteamred | chimyst
p1991
tp1992
a(I665
V1946
p1993
Vchirandom | teamblack
p1994
tp1995
a(I666
V1946
p1996
Vchirandom | teamblack
p1997
tp1998
a(I667
V1946
p1999
Vteamred | chiscifi | stew
p2000
tp2001
a(I668
V1946
p2002
Vteamblack | chiscifi | stew
p2003
tp2004
a(I669
V1946
p2005
Vteamred | det100 | chimyst
p2006
tp2007
a(I670
V1946
p2008
Vteamred | chiscifi
p2009
tp2010
a(I671
V1946
p2011
Vchirandom | teamblack
p2012
tp2013
a(I672
V1946
p2014
Vteamred | chiscifi
p2015
tp2016
a(I673
V1946
p2017
Vteamblack | chiscifi | stew
p2018
tp2019
a(I674
V1946
p2020
Vchirandom | teamblack
p2021
tp2022
a(I675
V1946
p2023
Vteamblack | chiscifi
p2024
tp2025
a(I676
V1946
p2026
Vteamblack | pbgothic | stew
p2027
tp2028
a(I677
V1946
p2029
Vteamred | det100 | chimyst
p2030
tp2031
a(I678
V1947
p2032
Vchirandom | teamred | chiscifi
p2033
tp2034
a(I679
V1947
p2035
Vchirandom | teamblack
p2036
tp2037
a(I680
V1947
p2038
Vchirandom | teamblack
p2039
tp2040
a(I681
V1947
p2041
Vchirandom | teamred
p2042
tp2043
a(I682
V1947
p2044
Vchirandom | teamred
p2045
tp2046
a(I683
V1947
p2047
Vteamred | chifantasy
p2048
tp2049
a(I684
V1947
p2050
Vteamred | chiscifi
p2051
tp2052
a(I685
V1948
p2053
Vchirandom | det100 | teamblack | chimyst | cozy | stew
p2054
tp2055
a(I686
V1948
p2056
Vchirandom | chiutopia | teamblack
p2057
tp2058
a(I687
V1948
p2059
Vchirandom | teamred
p2060
tp2061
a(I688
V1948
p2062
Vchifantasy | teamblack | chihorror | chiscifi
p2063
tp2064
a(I689
V1948
p2065
Vteamred | chimyst
p2066
tp2067
a(I690
V1948
p2068
Vteamred | pbgothic | chiscifi | lavin_ghost | lavin_magic
p2069
tp2070
a(I691
V1948
p2071
Vteamred | chiscifi
p2072
tp2073
a(I692
V1948
p2074
Vteamblack | chimyst
p2075
tp2076
a(I693
V1949
p2077
Vchirandom | teamred | chimyst
p2078
tp2079
a(I694
V1949
p2080
Vchirandom | teamred | chimyst
p2081
tp2082
a(I695
V1949
p2083
Vteamblack | chiscifi
p2084
tp2085
a(I696
V1949
p2086
Vchirandom | teamblack | chimyst
p2087
tp2088
a(I697
V1949
p2089
Vteamred | chifantasy
p2090
tp2091
a(I698
V1949
p2092
Vteamblack | chiscifi
p2093
tp2094
a(I699
V1949
p2095
Vteamred | det100 | chimyst
p2096
tp2097
a(I700
V1949
p2098
Vteamred | chiscifi
p2099
tp2100
a(I701
V1949
p2101
Vchirandom | teamred
p2102
tp2103
a(I702
V1950
p2104
Vchifantasy | teamblack
p2105
tp2106
a(I703
V1950
p2107
Vteamred | chimyst
p2108
tp2109
a(I704
V1950
p2110
Vteamred | chifantasy
p2111
tp2112
a(I705
V1950
p2113
Vteamred | chiscifi
p2114
tp2115
a(I706
V1950
p2116
Vchirandom | teamblack | chimyst
p2117
tp2118
a(I707
V1950
p2119
Vteamred | chifantasy | chiscifi | stew
p2120
tp2121
a(I708
V1950
p2122
Vchirandom | teamblack
p2123
tp2124
a(I709
V1950
p2125
Vchirandom | teamred | chimyst | stew
p2126
tp2127
a(I710
V1950
p2128
Vchifantasy | teamblack
p2129
tp2130
a(I711
V1950
p2131
Vteamblack | chimyst
p2132
tp2133
a(I712
V1950
p2134
Vchifantasy | teamblack
p2135
tp2136
a(I713
V1950
p2137
Vchirandom | teamred
p2138
tp2139
a(I714
V1950
p2140
Vteamblack | chiscifi | stew
p2141
tp2142
a(I715
V1950
p2143
Vchirandom | teamblack
p2144
tp2145
a(I716
V1950
p2146
Vteamred | chimyst
p2147
tp2148
a(I717
V1950
p2149
Vchirandom | teamblack | chiscifi
p2150
tp2151
a(I718
V1951
p2152
Vteamred | chiscifi | stew
p2153
tp2154
a(I719
V1951
p2155
Vhardboiled | chimyst | teamred
p2156
tp2157
a(I720
V1951
p2158
Vteamblack | chimyst
p2159
tp2160
a(I721
V1951
p2161
Vteamred | chiscifi
p2162
tp2163
a(I722
V1951
p2164
Vchirandom | teamred | chiscifi
p2165
tp2166
a(I723
V1951
p2167
Vteamblack | chiscifi | stew
p2168
tp2169
a(I724
V1952
p2170
Vteamred | chimyst | cozy
p2171
tp2172
a(I725
V1952
p2173
Vchirandom | teamblack | chiscifi | stew
p2174
tp2175
a(I726
V1952
p2176
Vteamred | chimyst | stew
p2177
tp2178
a(I727
V1952
p2179
Vteamblack | chiscifi
p2180
tp2181
a(I728
V1952
p2182
Vchirandom | hardboiled | teamblack | chimyst | stew
p2183
tp2184
a(I729
V1952
p2185
Vchirandom | teamblack | chiscifi | stew
p2186
tp2187
a(I730
V1952
p2188
Vchirandom | teamblack | chimyst
p2189
tp2190
a(I731
V1952
p2191
Vchirandom | teamblack
p2192
tp2193
a(I732
V1953
p2194
Vteamred | chiscifi
p2195
tp2196
a(I733
V1953
p2197
Vchirandom | teamblack | chiscifi | stew
p2198
tp2199
a(I734
V1953
p2200
Vchirandom | teamred | chiscifi | stew
p2201
tp2202
a(I735
V1953
p2203
Vchirandom | teamred | chiscifi | stew
p2204
tp2205
a(I736
V1953
p2206
Vteamblack | chiscifi | stew
p2207
tp2208
a(I737
V1953
p2209
Vchirandom | teamred
p2210
tp2211
a(I738
V1953
p2212
Vchirandom | teamred
p2213
tp2214
a(I739
V1954
p2215
Vchirandom | teamred
p2216
tp2217
a(I740
V1954
p2218
Vteamblack | chiscifi | stew
p2219
tp2220
a(I741
V1954
p2221
Vteamblack | chimyst
p2222
tp2223
a(I742
V1954
p2224
Vchirandom | teamblack
p2225
tp2226
a(I743
V1954
p2227
Vteamblack | chiscifi
p2228
tp2229
a(I744
V1954
p2230
Vteamred | pbgothic | chihorror | chiscifi | lavin_magic
p2231
tp2232
a(I745
V1954
p2233
Vchirandom | teamred
p2234
tp2235
a(I746
V1955
p2236
Vteamred | chimyst
p2237
tp2238
a(I747
V1955
p2239
Vchirandom | teamred
p2240
tp2241
a(I748
V1955
p2242
Vteamred | chimyst
p2243
tp2244
a(I749
V1956
p2245
Vchirandom | teamblack
p2246
tp2247
a(I750
V1956
p2248
Vteamblack | chiscifi
p2249
tp2250
a(I751
V1956
p2251
Vchirandom | teamred | chiscifi
p2252
tp2253
a(I752
V1956
p2254
Vteamblack | chimyst
p2255
tp2256
a(I753
V1956
p2257
Vteamblack | chimyst
p2258
tp2259
a(I754
V1957
p2260
Vteamblack | chiscifi
p2261
tp2262
a(I755
V1957
p2263
Vchirandom | teamblack
p2264
tp2265
a(I756
V1957
p2266
Vteamred | chiscifi
p2267
tp2268
a(I757
V1957
p2269
Vchirandom | teamblack | chiscifi
p2270
tp2271
a(I758
V1958
p2272
Vchirandom | teamred
p2273
tp2274
a(I759
V1958
p2275
Vchirandom | teamblack
p2276
tp2277
a(I760
V1958
p2278
Vchirandom | teamblack
p2279
tp2280
a(I761
V1959
p2281
Vchirandom | teamblack
p2282
tp2283
a(I762
V1959
p2284
Vteamred | det100 | chimyst
p2285
tp2286
a(I763
V1959
p2287
Vteamred | chiscifi
p2288
tp2289
a(I764
V1959
p2290
Vteamblack | chiscifi | stew
p2291
tp2292
a(I765
V1959
p2293
Vchirandom | hardboiled | chimyst | teamred
p2294
tp2295
a(I766
V1959
p2296
Vteamblack | pbgothic | lavin_slasher
p2297
tp2298
a(I767
V1959
p2299
Vteamblack | pbgothic | stew | lavin_ghost
p2300
tp2301
a(I768
V1959
p2302
Vchirandom | teamred
p2303
tp2304
a(I769
V1959
p2305
Vteamred | chimyst
p2306
tp2307
a(I770
V1960
p2308
Vteamblack | chiscifi
p2309
tp2310
a(I771
V1960
p2311
Vchirandom | teamblack
p2312
tp2313
a(I772
V1960
p2314
Vchirandom | teamblack
p2315
tp2316
a(I773
V1960
p2317
Vteamblack | chimyst | stew
p2318
tp2319
a(I774
V1960
p2320
Vteamred | chimyst
p2321
tp2322
a(I775
V1961
p2323
Vchirandom | teamred
p2324
tp2325
a(I776
V1961
p2326
Vchirandom | teamblack | chimyst
p2327
tp2328
a(I777
V1961
p2329
Vteamred | chiscifi | stew
p2330
tp2331
a(I778
V1962
p2332
Vteamred | chiscifi | stew
p2333
tp2334
a(I779
V1962
p2335
Vchirandom | teamblack
p2336
tp2337
a(I780
V1962
p2338
Vteamblack | chihorror | chiscifi | lavin_magic
p2339
tp2340
a(I781
V1962
p2341
Vteamblack | chiscifi
p2342
tp2343
a(I782
V1962
p2344
Vchifantasy | teamblack | chiscifi
p2345
tp2346
a(I783
V1962
p2347
Vchiutopia | chiscifi | teamred
p2348
tp2349
a(I784
V1962
p2350
Vchirandom | teamblack | chimyst
p2351
tp2352
a(I785
V1962
p2353
Vteamblack | chimyst
p2354
tp2355
a(I786
V1963
p2356
Vchirandom | teamblack
p2357
tp2358
a(I787
V1963
p2359
Vteamblack | chiscifi
p2360
tp2361
a(I788
V1963
p2362
Vchirandom | teamblack
p2363
tp2364
a(I789
V1964
p2365
Vchirandom | teamblack
p2366
tp2367
a(I790
V1964
p2368
Vchirandom | teamblack
p2369
tp2370
a(I791
V1964
p2371
Vteamblack | chiscifi
p2372
tp2373
a(I792
V1964
p2374
Vteamblack | chiscifi
p2375
tp2376
a(I793
V1964
p2377
Vchirandom | teamred
p2378
tp2379
a(I794
V1965
p2380
Vchirandom | teamblack
p2381
tp2382
a(I795
V1965
p2383
Vteamred | chimyst
p2384
tp2385
a(I796
V1965
p2386
Vchirandom | teamblack
p2387
tp2388
a(I797
V1965
p2389
Vteamblack | chimyst | stew
p2390
tp2391
a(I798
V1965
p2392
Vchirandom | teamred | chimyst
p2393
tp2394
a(I799
V1965
p2395
Vchirandom | teamblack
p2396
tp2397
a(I800
V1965
p2398
Vchirandom | teamred
p2399
tp2400
a(I801
V1965
p2401
Vteamred | chimyst
p2402
tp2403
a(I802
V1965
p2404
Vteamred | chiscifi | stew
p2405
tp2406
a(I803
V1965
p2407
Vchirandom | teamblack
p2408
tp2409
a(I804
V1965
p2410
Vchirandom | teamblack
p2411
tp2412
a(I805
V1966
p2413
Vchirandom | teamblack
p2414
tp2415
a(I806
V1966
p2416
Vchirandom | teamblack | chiscifi
p2417
tp2418
a(I807
V1966
p2419
Vteamred | chiscifi
p2420
tp2421
a(I808
V1966
p2422
Vteamred | chimyst
p2423
tp2424
a(I809
V1966
p2425
Vteamred | chiscifi
p2426
tp2427
a(I810
V1966
p2428
Vteamred | chimyst | stew
p2429
tp2430
a(I811
V1966
p2431
Vchifantasy | teamblack | chiscifi
p2432
tp2433
a(I812
V1966
p2434
Vchirandom | teamred
p2435
tp2436
a(I813
V1966
p2437
Vteamred | chiscifi | stew
p2438
tp2439
a(I814
V1966
p2440
Vteamred | chifantasy
p2441
tp2442
a(I815
V1966
p2443
Vteamred | chiscifi
p2444
tp2445
a(I816
V1967
p2446
Vteamblack | chimyst
p2447
tp2448
a(I817
V1967
p2449
Vchirandom | teamblack
p2450
tp2451
a(I818
V1967
p2452
Vchirandom | teamblack | chimyst
p2453
tp2454
a(I819
V1967
p2455
Vchifantasy | teamblack
p2456
tp2457
a(I820
V1967
p2458
Vchirandom | teamred
p2459
tp2460
a(I821
V1967
p2461
Vteamblack | pbgothic | chihorror | stew | lavin_magic
p2462
tp2463
a(I822
V1967
p2464
Vteamblack | chimyst
p2465
tp2466
a(I823
V1968
p2467
Vteamred | pbgothic | chihorror | lavin_magic
p2468
tp2469
a(I824
V1968
p2470
Vteamred | chihorror | lavin_magic
p2471
tp2472
a(I825
V1968
p2473
Vchirandom | teamblack
p2474
tp2475
a(I826
V1969
p2476
Vchirandom | teamred
p2477
tp2478
a(I827
V1969
p2479
Vteamred | chimyst
p2480
tp2481
a(I828
V1969
p2482
Vchirandom | teamblack
p2483
tp2484
a(I829
V1969
p2485
Vteamred | chiscifi
p2486
tp2487
a(I830
V1969
p2488
Vteamred | chimyst | stew
p2489
tp2490
a(I831
V1969
p2491
Vchifantasy | teamblack
p2492
tp2493
a(I832
V1969
p2494
Vchirandom | teamblack | chimyst | stew
p2495
tp2496
a(I833
V1969
p2497
Vteamblack | chiscifi
p2498
tp2499
a(I834
V1969
p2500
Vteamred | chimyst
p2501
tp2502
a(I835
V1970
p2503
Vchirandom | teamblack | chiscifi
p2504
tp2505
a(I836
V1970
p2506
Vhardboiled | teamblack | chimyst | stew
p2507
tp2508
a(I837
V1970
p2509
Vteamblack | chiscifi
p2510
tp2511
a(I838
V1970
p2512
Vchiutopia | teamblack
p2513
tp2514
a(I839
V1970
p2515
Vchifantasy | teamblack | chiscifi
p2516
tp2517
a(I840
V1970
p2518
Vchirandom | teamred
p2519
tp2520
a(I841
V1970
p2521
Vchirandom | teamred
p2522
tp2523
a(I842
V1971
p2524
Vchiutopia | chiscifi | teamred | stew
p2525
tp2526
a(I843
V1971
p2527
Vchifantasy | teamblack
p2528
tp2529
a(I844
V1971
p2530
Vteamblack | pbgothic | lavin_magic
p2531
tp2532
a(I845
V1971
p2533
Vteamred | chiscifi
p2534
tp2535
a(I846
V1971
p2536
Vteamblack | chimyst | stew
p2537
tp2538
a(I847
V1971
p2539
Vteamblack | chimyst
p2540
tp2541
a(I848
V1971
p2542
Vteamred | chimyst
p2543
tp2544
a(I849
V1972
p2545
Vteamblack | chihorror | chiscifi
p2546
tp2547
a(I850
V1972
p2548
Vchirandom | teamred | crime
p2549
tp2550
a(I851
V1972
p2551
Vchirandom | teamred
p2552
tp2553
a(I852
V1973
p2554
Vchirandom | teamblack | chiscifi
p2555
tp2556
a(I853
V1973
p2557
Vteamred | chimyst
p2558
tp2559
a(I854
V1973
p2560
Vchirandom | teamblack
p2561
tp2562
a(I855
V1973
p2563
Vchirandom | teamblack | chimyst
p2564
tp2565
a(I856
V1973
p2566
Vteamred | chiscifi
p2567
tp2568
a(I857
V1973
p2569
Vchirandom | teamred | chifantasy
p2570
tp2571
a(I858
V1973
p2572
Vchirandom | teamred | chimyst
p2573
tp2574
a(I859
V1973
p2575
Vchirandom | teamred
p2576
tp2577
a(I860
V1973
p2578
Vteamblack | chimyst
p2579
tp2580
a(I861
V1973
p2581
Vchirandom | teamred
p2582
tp2583
a(I862
V1974
p2584
Vchirandom | teamblack | crime
p2585
tp2586
a(I863
V1974
p2587
Vchiutopia | chiscifi | teamred
p2588
tp2589
a(I864
V1974
p2590
Vteamred | chimyst | stew
p2591
tp2592
a(I865
V1974
p2593
Vteamblack | chimyst
p2594
tp2595
a(I866
V1975
p2596
Vchirandom | chifantasy | teamblack
p2597
tp2598
a(I867
V1975
p2599
Vteamblack | chiscifi | stew
p2600
tp2601
a(I868
V1976
p2602
Vteamblack | chihorror | stew | lavin_magic
p2603
tp2604
a(I869
V1976
p2605
Vteamblack | pbgothic | lavin_magic
p2606
tp2607
a(I870
V1976
p2608
Vteamblack | chiscifi
p2609
tp2610
a(I871
V1976
p2611
Vteamblack | chimyst
p2612
tp2613
a(I872
V1976
p2614
Vchiutopia | chiscifi | teamred
p2615
tp2616
a(I873
V1976
p2617
Vchirandom | teamblack
p2618
tp2619
a(I874
V1976
p2620
Vchifantasy | teamblack
p2621
tp2622
a(I875
V1976
p2623
Vteamred | chifantasy | chiscifi
p2624
tp2625
a(I876
V1976
p2626
Vteamred | chimyst
p2627
tp2628
a(I877
V1976
p2629
Vchirandom | teamred
p2630
tp2631
a(I878
V1977
p2632
Vchirandom | teamblack
p2633
tp2634
a(I879
V1977
p2635
Vchirandom | teamred
p2636
tp2637
a(I880
V1977
p2638
Vteamred | chifantasy | chiscifi
p2639
tp2640
a(I881
V1977
p2641
Vteamred | chihorror | lavin_slasher
p2642
tp2643
a(I882
V1977
p2644
Vteamblack | chiscifi
p2645
tp2646
a(I883
V1977
p2647
Vteamred | chimyst
p2648
tp2649
a(I884
V1977
p2650
Vchirandom | chifantasy | teamblack | chiscifi | stew
p2651
tp2652
a(I885
V1977
p2653
Vchirandom | teamred | chiscifi
p2654
tp2655
a(I886
V1977
p2656
Vchifantasy | teamblack
p2657
tp2658
a(I887
V1977
p2659
Vchifantasy | teamblack
p2660
tp2661
a(I888
V1978
p2662
Vteamblack | chimyst
p2663
tp2664
a(I889
V1978
p2665
Vteamred | chimyst
p2666
tp2667
a(I890
V1978
p2668
Vteamred | chimyst
p2669
tp2670
a(I891
V1978
p2671
Vteamred | chiscifi | stew
p2672
tp2673
a(I892
V1978
p2674
Vchirandom | teamblack
p2675
tp2676
a(I893
V1978
p2677
Vteamred | pbgothic
p2678
tp2679
a(I894
V1978
p2680
Vchirandom | teamred
p2681
tp2682
a(I895
V1978
p2683
Vchirandom | teamred
p2684
tp2685
a(I896
V1978
p2686
Vteamred | chihorror | stew
p2687
tp2688
a(I897
V1978
p2689
Vteamred | chimyst | stew
p2690
tp2691
a(I898
V1978
p2692
Vteamred | chihorror | stew | lavin_magic
p2693
tp2694
a(I899
V1978
p2695
Vteamred | chiscifi
p2696
tp2697
a(I900
V1978
p2698
Vteamred | chimyst | chihorror | lavin_magic
p2699
tp2700
a(I901
V1978
p2701
Vchirandom | teamblack
p2702
tp2703
a(I902
V1979
p2704
Vteamblack | chiscifi
p2705
tp2706
a(I903
V1979
p2707
Vchirandom | teamred
p2708
tp2709
a(I904
V1979
p2710
Vteamred | chiscifi | stew
p2711
tp2712
a(I905
V1979
p2713
Vteamblack | chiscifi | stew
p2714
tp2715
a(I906
V1979
p2716
Vchirandom | teamblack
p2717
tp2718
a(I907
V1979
p2719
Vteamblack | chihorror | chiscifi | stew | lavin_ghost
p2720
tp2721
a(I908
V1979
p2722
Vteamred | chifantasy | chiscifi
p2723
tp2724
a(I909
V1979
p2725
Vchirandom | teamblack
p2726
tp2727
a(I910
V1980
p2728
Vchirandom | teamblack
p2729
tp2730
a(I911
V1980
p2731
Vteamred | chiscifi
p2732
tp2733
a(I912
V1980
p2734
Vteamred | chihorror
p2735
tp2736
a(I913
V1980
p2737
Vchirandom | teamred
p2738
tp2739
a(I914
V1981
p2740
Vchimyst | pbgothic | teamred | lavin_slasher
p2741
tp2742
a(I915
V1981
p2743
Vchirandom | teamred
p2744
tp2745
a(I916
V1981
p2746
Vteamblack | chimyst | stew
p2747
tp2748
a(I917
V1981
p2749
Vteamred | chiscifi | stew
p2750
tp2751
a(I918
V1981
p2752
Vteamblack | chiscifi
p2753
tp2754
a(I919
V1981
p2755
Vchirandom | teamred | chiscifi | stew
p2756
tp2757
a(I920
V1981
p2758
Vteamblack | pbgothic | stew | lavin_magic
p2759
tp2760
a(I921
V1981
p2761
Vteamred | chiscifi | stew
p2762
tp2763
a(I922
V1981
p2764
Vteamred | chiscifi
p2765
tp2766
a(I923
V1982
p2767
Vchirandom | teamred | chiscifi
p2768
tp2769
a(I924
V1982
p2770
Vteamblack | chimyst | stew
p2771
tp2772
a(I925
V1982
p2773
Vteamblack | chiscifi
p2774
tp2775
a(I926
V1982
p2776
Vteamblack | chihorror | stew | lavin_slasher | lavin_deranged
p2777
tp2778
a(I927
V1982
p2779
Vteamblack | chimyst | stew
p2780
tp2781
a(I928
V1982
p2782
Vteamblack | chiscifi | stew
p2783
tp2784
a(I929
V1983
p2785
Vchirandom | teamred
p2786
tp2787
a(I930
V1983
p2788
Vchirandom | teamblack
p2789
tp2790
a(I931
V1983
p2791
Vchirandom | teamred | chimyst | stew
p2792
tp2793
a(I932
V1983
p2794
Vchirandom | teamred | chiscifi | stew
p2795
tp2796
a(I933
V1983
p2797
Vchirandom | teamblack
p2798
tp2799
a(I934
V1983
p2800
Vteamblack | chiscifi
p2801
tp2802
a(I935
V1984
p2803
Vteamred | chifantasy | chiscifi
p2804
tp2805
a(I936
V1984
p2806
Vteamred | chimyst
p2807
tp2808
a(I937
V1984
p2809
Vteamred | chimyst | stew
p2810
tp2811
a(I938
V1984
p2812
Vteamred | pbgothic | chiscifi | stew
p2813
tp2814
a(I939
V1985
p2815
Vteamblack | chiscifi
p2816
tp2817
a(I940
V1985
p2818
Vchirandom | teamblack | chiscifi | stew
p2819
tp2820
a(I941
V1985
p2821
Vchirandom | teamred | chimyst
p2822
tp2823
a(I942
V1985
p2824
Vchirandom | teamblack
p2825
tp2826
a(I943
V1985
p2827
Vteamred | chimyst
p2828
tp2829
a(I944
V1986
p2830
Vteamred | chiscifi
p2831
tp2832
a(I945
V1986
p2833
Vteamblack | chimyst
p2834
tp2835
a(I946
V1986
p2836
Vteamblack | chimyst | stew
p2837
tp2838
a(I947
V1986
p2839
Vteamred | chihorror | chiscifi | stew | lavin_magic
p2840
tp2841
a(I948
V1986
p2842
Vteamred | chifantasy
p2843
tp2844
a(I949
V1987
p2845
Vchirandom | teamblack
p2846
tp2847
a(I950
V1987
p2848
Vchirandom | teamblack
p2849
tp2850
a(I951
V1987
p2851
Vteamblack | chimyst | stew
p2852
tp2853
a(I952
V1987
p2854
Vchirandom | teamred
p2855
tp2856
a(I953
V1987
p2857
Vchirandom | teamred | chimyst
p2858
tp2859
a(I954
V1987
p2860
Vteamblack | chimyst
p2861
tp2862
a(I955
V1987
p2863
Vteamred | chimyst
p2864
tp2865
a(I956
V1987
p2866
Vteamblack | chiscifi | stew
p2867
tp2868
a(I957
V1987
p2869
Vchirandom | teamblack | chiscifi
p2870
tp2871
a(I958
V1987
p2872
Vchirandom | teamred | chimyst
p2873
tp2874
a(I959
V1987
p2875
Vchirandom | teamred
p2876
tp2877
a(I960
V1987
p2878
Vteamred | pbgothic | chihorror | lavin_slasher | lavin_deranged
p2879
tp2880
a(I961
V1987
p2881
Vchirandom | teamred
p2882
tp2883
a(I962
V1987
p2884
Vteamblack | chimyst
p2885
tp2886
a(I963
V1987
p2887
Vchifantasy | teamblack
p2888
tp2889
a(I964
V1987
p2890
Vteamblack | pbgothic | lavin_ghost
p2891
tp2892
a(I965
V1987
p2893
Vchirandom | teamred
p2894
tp2895
a(I966
V1987
p2896
Vchirandom | teamred
p2897
tp2898
a(I967
V1988
p2899
Vteamred | chiscifi
p2900
tp2901
a(I968
V1988
p2902
Vchifantasy | teamblack | pbgothic | stew | lavin_magic
p2903
tp2904
a(I969
V1988
p2905
Vchifantasy | teamblack
p2906
tp2907
a(I970
V1988
p2908
Vteamblack | chimyst | stew
p2909
tp2910
a(I971
V1988
p2911
Vteamred | chifantasy | chiscifi
p2912
tp2913
a(I972
V1988
p2914
Vchirandom | teamblack | chimyst | stew
p2915
tp2916
a(I973
V1989
p2917
Vteamred | chimyst
p2918
tp2919
a(I974
V1989
p2920
Vchirandom | teamblack | chimyst
p2921
tp2922
a(I975
V1989
p2923
Vteamred | chimyst
p2924
tp2925
a(I976
V1989
p2926
Vteamblack | chihorror | stew
p2927
tp2928
a(I977
V1989
p2929
Vchirandom | teamblack | chiscifi | stew
p2930
tp2931
a(I978
V1989
p2932
Vteamred | chihorror | chiscifi | stew
p2933
tp2934
a(I979
V1989
p2935
Vteamred | chifantasy | chiscifi
p2936
tp2937
a(I980
V1989
p2938
Vchifantasy | teamblack | chimyst | chihorror | lavin_slasher | lavin_magic
p2939
tp2940
a(I981
V1989
p2941
Vchirandom | teamred | chimyst | stew
p2942
tp2943
a(I982
V1989
p2944
Vteamred | chimyst | chiscifi
p2945
tp2946
a(I983
V1989
p2947
Vchirandom | teamblack
p2948
tp2949
a(I984
V1989
p2950
Vteamred | chiscifi
p2951
tp2952
a.