(lp0
(I1
V1760
p1
Vteamred | random
p2
VLesuire%2C+Robert+Martin%2C
p3
VThe+savages+of+Europe
p4
S'non_genre'
p5
S'no_lavin_tag'
p6
(lp7
tp8
a(I2
V1761
p9
Vteamred | random
p10
VRousseau%2C+Jean-Jacques%2C
p11
VEloisa%3A+or+A+series+of+or
p12
g5
g6
(lp13
tp14
a(I3
V1764
p15
Vteamblack | random
p16
VAnonymous4
p17
VThe+memoirs+of+Miss+D%27Arv
p18
g5
g6
(lp19
tp20
a(I4
V1764
p21
Vteamred | pbgothic | stew | lavin_ghost
p22
VWalpole%2C+Horace%2C
p23
VThe+castle+of+Otranto%3B
p24
S'gothic'
p25
Vlavin_ghost
p26
(lp27
g25
atp28
a(I5
V1771
p29
Vteamblack | anatscifi
p30
VMercier%2C+Louis-Sbastien%2C
p31
VMemoirs+of+the+year+two+t
p32
S'scifi'
p33
g6
(lp34
g33
atp35
a(I6
V1777
p36
Vteamblack | random
p37
VHenrietta.
p38
VLetters+from+Henrietta+to
p39
g5
g6
(lp40
tp41
a(I7
V1777
p42
Vteamblack | pbgothic | lavin_ghost
p43
VReeve%2C+Clara%2C
p44
VThe+old+English+baron
p45
g25
Vlavin_ghost
p46
(lp47
g25
atp48
a(I8
V1780
p49
Vteamblack | random
p50
VLeprince+de+Beaumont%2C
p51
VLetters+of+Madame+Du+Montier
p52
g5
g6
(lp53
tp54
a(I9
V1780
p55
Vteamblack | random
p56
VCampe%2C+Joachim+Heinrich%2C
p57
VThe+new+Robinson+Crusoe%3B
p58
g5
g6
(lp59
tp60
a(I10
V1785
p61
Vteamred | random
p62
VGenlis%2C+Stphanie+Flicit
p63
VTales+of+the+castle%3B
p64
g5
g6
(lp65
tp66
a(I11
V1785
p67
Vteamblack | pbgothic | stew | lavin_deranged
p68
VLee%2C+Sophia%2C
p69
VThe+recess%3B
p70
g25
Vlavin_deranged
p71
(lp72
g25
atp73
a(I12
V1786
p74
Vteamred | random
p75
VBennett%2C+Anna+Maria%2C
p76
VAnna%3B+or%2C+Memoirs+of+a+Welch+Heiress
p77
g5
g6
(lp78
tp79
a(I13
V1786
p80
Vteamblack | pbgothic | stew | lavin_magic
p81
VBeckford%2C+William%2C
p82
VVathek
p83
g25
Vlavin_magic
p84
(lp85
g25
atp86
a(I14
V1788
p87
Vteamred | random
p88
VBerkeley%2C+George+Monck%2C
p89
VHeloise%3A+or+The+siege+of+
p90
g5
g6
(lp91
tp92
a(I15
V1788
p93
Vteamblack | pbgothic | stew | lavin_deranged
p94
VSmith%2C+Charlotte%2C
p95
VEmmeline
p96
g25
Vlavin_deranged
p97
(lp98
g25
atp99
a(I16
V1788
p100
Vteamred | pbgothic | stew | lavin_deranged
p101
VSmith%2C+Charlotte%2C
p102
VEmmeline
p103
g25
Vlavin_deranged
p104
(lp105
g25
atp106
a(I17
V1790
p107
Vteamblack | random
p108
VWhite%2C+James%2C
p109
VThe+adventures+of+John+of
p110
g5
g6
(lp111
tp112
a(I18
V1790
p113
Vteamred | pbgothic | stew | lavin_deranged
p114
VRadcliffe%2C+Ann+Ward%2C
p115
VA+Sicilian+romance
p116
g25
Vlavin_deranged
p117
(lp118
g25
atp119
a(I19
V1790
p120
Vteamblack | random
p121
VLavalle%2C+Joseph%2C
p122
VThe+negro+equalled+by+few
p123
g5
g6
(lp124
tp125
a(I20
V1790
p126
Vteamred | pbgothic | stew | lavin_deranged
p127
VRadcliffe%2C+Ann+Ward%2C
p128
VA+Sicilian+romance
p129
g25
Vlavin_deranged
p130
(lp131
g25
atp132
a(I21
V1791
p133
Vteamblack | random
p134
VCombe%2C+William%2C
p135
VThe+devil+upon+two+sticks
p136
g5
g6
(lp137
tp138
a(I22
V1791
p139
Vteamblack | stangothic
p140
VReeve%2C+Clara%2C
p141
VThe+school+for+widows
p142
g25
g6
(lp143
g25
atp144
a(I23
V1791
p145
Vteamblack | pbgothic | stew | lavin_deranged
p146
VRadcliffe%2C+Ann+Ward%2C
p147
VThe+romance+of+the+forest
p148
g25
Vlavin_deranged
p149
(lp150
g25
atp151
a(I24
V1794
p152
Vteamred | pbgothic | stew | lavin_deranged
p153
VGodwin%2C+William%2C
p154
VThe+adventures+of+Caleb+W
p155
g25
Vlavin_deranged
p156
(lp157
g25
atp158
a(I25
V1794
p159
Vteamred | random
p160
VMoser%2C+Joseph%2C
p161
VTurkish+tales
p162
g5
g6
(lp163
tp164
a(I26
V1794
p165
Vteamred | random
p166
VBennett%2C+Anna+Maria%2C
p167
VEllen%2C+Countess+of+Castle+Howel
p168
g5
g6
(lp169
tp170
a(I27
V1794
p171
Vteamblack | pbgothic | stew
p172
VRadcliffe%2C+Ann+Ward%2C
p173
VThe+mysteries+of+Udolpho
p174
g25
g6
(lp175
g25
atp176
a(I28
V1794
p177
Vteamred | pbgothic
p178
VRadcliffe%2C+Ann+Ward%2C
p179
VThe+mysteries+of+Udolpho
p180
g25
g6
(lp181
g25
atp182
a(I29
V1794
p183
Vteamblack | random
p184
VGunning%2C
p185
VMemoirs+of+Mary
p186
g5
g6
(lp187
tp188
a(I30
V1795
p189
Vteamred | random
p190
VCumberland%2C+Richard%2C
p191
VHenry
p192
g5
g6
(lp193
tp194
a(I31
V1796
p195
Vteamblack | pbgothic | lavin_magic
p196
VLewis%2C+M.+G.
p197
VThe+monk
p198
g25
Vlavin_magic
p199
(lp200
g25
atp201
a(I32
V1796
p202
Vteamblack | pbgothic | lavin_ghost
p203
VRoche%2C+Regina+Maria%2C
p204
VThe+children+of+the+abbey
p205
g25
Vlavin_ghost
p206
(lp207
g25
atp208
a(I33
V1796
p209
Vteamblack | random
p210
VBurney%2C+Fanny%2C
p211
VCamilla%3A+or%2C+A+picture+of
p212
g5
g6
(lp213
tp214
a(I34
V1796
p215
Vteamblack | pbgothic | stew | lavin_magic
p216
VLewis%2C+M.+G.
p217
VThe+monk
p218
g25
Vlavin_magic
p219
(lp220
g25
atp221
a(I35
V1798
p222
Vteamred | pbgothic
p223
VBrown%2C+Charles+Brockden%2C
p224
VWieland%3B+or%2C+The+transfor
p225
g25
g6
(lp226
g25
atp227
a(I36
V1799
p228
Vteamred | pbgothic | lavin_magic | lavin_deranged
p229
VGodwin%2C+William%2C
p230
VSt.+Leon%3A+a+tale+of+the+s
p231
g25
S'lavin_multi'
p232
(lp233
g25
atp234
a(I37
V1799
p235
Vteamred | random
p236
VRobinson%2C+Mary+Darby%2C
p237
VThe+false+friend
p238
g5
g6
(lp239
tp240
a(I38
V1800
p241
Vteamred | random
p242
VHamilton%2C+Elizabeth%2C
p243
VMemoirs+of+modern+philosophers
p244
g5
g6
(lp245
tp246
a(I39
V1800
p247
Vteamred | random
p248
VKaramzin%2C+Nikola+Mikhalovich%2C
p249
VRussian+tales
p250
g5
g6
(lp251
tp252
a(I40
V1800
p253
Vlockandkey | teamblack
p254
VAnonymous5
p255
VDevasmita
p256
S'crime'
p257
g6
(lp258
g257
atp259
a(I41
V1800
p260
Vteamred | lockandkey | stew
p261
VAnonymous8
p262
VThe+Three+Sharpers
p263
g257
g6
(lp264
g257
atp265
a(I42
V1801
p266
Vteamred | random
p267
VDu+Bois%2C+Edward%2C
p268
VOld+Nick%3B
p269
g5
g6
(lp270
tp271
a(I43
V1801
p272
Vteamred | random
p273
VDu+Bois%2C+Edward%2C
p274
VOld+Nick%3B
p275
g5
g6
(lp276
tp277
a(I44
V1801
p278
Vteamblack | stangothic
p279
VMoore%2C+George%2C
p280
VGrasville+Abbey
p281
g25
g6
(lp282
g25
atp283
a(I45
V1802
p284
Vteamblack | stangothic
p285
VMelville%2C+Theodore.
p286
VThe+white+knight%2C+or%2C+The+monastery+of+Morne
p287
g25
g6
(lp288
g25
atp289
a(I46
V1802
p290
Vteamred | random
p291
VCullen%2C+Margaret.
p292
VHome
p293
g5
g6
(lp294
tp295
a(I47
V1803
p296
Vteamblack | random
p297
VAnonymous0
p298
VLetters+of+Miss+Riversdale
p299
g5
g6
(lp300
tp301
a(I48
V1803
p302
Vteamred | stangothic
p303
VWalker%2C+George%2C
p304
VDon+Raphael
p305
g25
g6
(lp306
g25
atp307
a(I49
V1803
p308
Vteamblack | stangothic
p309
VCuthbertson%2C+Catherine.
p310
VRomance+of+the+Pyrenees
p311
g25
g6
(lp312
g25
atp313
a(I50
V1803
p314
Vteamblack | random
p315
VAnonymous7
p316
VBarbara+Markham%3B+or%2C+The+profligate+requited%3B
p317
g5
g6
(lp318
tp319
a(I51
V1803
p320
Vteamblack | stangothic
p321
VCuthbertson%2C+Catherine.
p322
VRomance+of+the+Pyrenees
p323
g25
g6
(lp324
g25
atp325
a(I52
V1803
p326
Vteamred | random
p327
VLee%2C+Harriet%2C
p328
VCanterbury+tales
p329
g5
g6
(lp330
tp331
a(I53
V1803
p332
Vteamblack | stangothic | stew
p333
VCuthbertson%2C+Catherine.
p334
VRomance+of+the+Pyrenees
p335
g25
g6
(lp336
g25
atp337
a(I54
V1803
p338
Vteamblack | stangothic
p339
VCuthbertson%2C+Catherine.
p340
VRomance+of+the+Pyrenees
p341
g25
g6
(lp342
g25
atp343
a(I55
V1803
p344
Vteamred | stangothic | stew
p345
VYoung%2C+Mary+Julia.
p346
VRight+and+wrong%3B+or%2C+The+kinsmen+of+Naples
p347
g25
g6
(lp348
g25
atp349
a(I56
V1806
p350
Vteamred | random
p351
VGenlis%2C+Stphanie+Flicit%2C
p352
VMadame+de+Maintenon
p353
g5
g6
(lp354
tp355
a(I57
V1806
p356
Vteamblack | stangothic | stew
p357
VFrances%2C+Sophia+L.
p358
VVivonio%2C+or%2C+The+hour+of+retribution
p359
g25
g6
(lp360
g25
atp361
a(I58
V1807
p362
Vteamred | random
p363
VBayfield%2C+E.+G.%2C
p364
VA+winter+in+Bath
p365
g5
g6
(lp366
tp367
a(I59
V1807
p368
Vteamred | stangothic
p369
VRoche%2C+Regina+Maria%2C
p370
VThe+discarded+son%3B+or%2C+Haunt+of+the+banditti
p371
g25
g6
(lp372
g25
atp373
a(I60
V1807
p374
Vteamblack | pbgothic
p375
VDacre%2C+Charlotte%2C
p376
VThe+libertine%3B
p377
g25
g6
(lp378
g25
atp379
a(I61
V1807
p380
Vteamred | stangothic
p381
VMortimer%2C+Edward%2C
p382
VThe+friar+Hildargo
p383
g25
g6
(lp384
g25
atp385
a(I62
V1807
p386
Vteamblack | random
p387
VGrant%2C+Anne+MacVicar%2C
p388
VLetters+from+the+mountain
p389
g5
g6
(lp390
tp391
a(I63
V1807
p392
Vteamred | random
p393
VBayfield%2C+E.+G.%2C
p394
VA+winter+in+Bath
p395
g5
g6
(lp396
tp397
a(I64
V1809
p398
Vteamred | random
p399
VMore%2C+Hannah%2C
p400
VClebs+in+search+of+a+wife
p401
g5
g6
(lp402
tp403
a(I65
V1809
p404
Vteamred | stangothic
p405
VFrances%2C+Sophia+L.
p406
VAngelo+Guicciardini%2C+or%2C+The+bandit+of+the+Alps
p407
g25
g6
(lp408
g25
atp409
a(I66
V1810
p410
Vteamblack | random
p411
VAnonymous6
p412
VThe+adulteress+%3B+or%2C+anecdotes+of+two+noble+families
p413
g5
g6
(lp414
tp415
a(I67
V1810
p416
Vteamblack | stangothic
p417
VCuthbertson%2C+Catherine.
p418
VForest+of+Montalbano
p419
g25
g6
(lp420
g25
atp421
a(I68
V1812
p422
Vteamred | stangothic | stew
p423
VStanhope%2C+Louisa+Sidney.
p424
VThe+confessional+of+Valombre
p425
g25
g6
(lp426
g25
atp427
a(I69
V1812
p428
Vteamblack | random
p429
VByron%2C+Medora+Gordon.
p430
VThe+Englishman
p431
g5
g6
(lp432
tp433
a(I70
V1813
p434
Vteamblack | random
p435
VParker%2C+Emma.
p436
VAretas
p437
g5
g6
(lp438
tp439
a(I71
V1813
p440
Vteamred | stangothic
p441
VRoche%2C+Regina+Maria%2C
p442
VThe+monastery+of+St.+Columb%3B
p443
g25
g6
(lp444
g25
atp445
a(I72
V1816
p446
Vteamblack | pbgothic | lavin_deranged
p447
VMaturin%2C+Charles+Robert%2C
p448
VBertram%2C+or%2C+The+castle+o
p449
g25
Vlavin_deranged
p450
(lp451
g25
atp452
a(I73
V1816
p453
Vteamblack | random
p454
VLewis%2C+Alethea%2C
p455
VRhoda
p456
g5
g6
(lp457
tp458
a(I74
V1816
p459
Vteamred | random
p460
VBurney%2C+Sarah+Harriet%2C
p461
VTales+of+fancy
p462
g5
g6
(lp463
tp464
a(I75
V1818
p465
Vteamblack | pbgothic
p466
VAusten%2C+Jane%2C
p467
VNorthanger+abbey
p468
g25
g6
(lp469
g25
atp470
a(I76
V1818
p471
Vteamblack | lochorror | stew
p472
VAusten%2C+Jane%2C
p473
VNorthanger+Abbey
p474
S'gothic'
p475
g6
(lp476
g475
atp477
a(I77
V1818
p478
Vteamblack | random
p479
VOpie%2C+Amelia+Alderson%2C
p480
VNew+tales
p481
g5
g6
(lp482
tp483
a(I78
V1818
p484
Vteamred | random
p485
VOpie%2C+Amelia+Alderson%2C
p486
VNew+tales
p487
g5
g6
(lp488
tp489
a(I79
V1818
p490
Vstangothic | femscifi | teamred | stew
p491
VShelley%2C+Mary+Wollstonecr
p492
VFrankenstein
p493
S'multi'
p494
g6
(lp495
g25
ag33
atp496
a(I80
V1818
p497
Vteamred | lochorror | stew
p498
VAusten%2C+Jane%2C
p499
VNorthanger+Abbey
p500
g475
g6
(lp501
g475
atp502
a(I81
V1818
p503
Vteamblack | stangothic
p504
VPorter%2C+Anna+Maria%2C
p505
VThe+fast+of+St.+Magdalen
p506
g25
g6
(lp507
g25
atp508
a(I82
V1818
p509
Vteamred | lochorror
p510
VAusten%2C+Jane%2C
p511
VNorthanger+Abbey
p512
g475
g6
(lp513
g475
atp514
a(I83
V1818
p515
Vteamblack | lochorror
p516
VAusten%2C+Jane%2C
p517
VNorthanger+Abbey
p518
g475
g6
(lp519
g475
atp520
a(I84
V1820
p521
Vteamblack | pbgothic | lavin_magic | lavin_deranged
p522
VMaturin%2C+Charles+Robert%2C
p523
VMelmoth+the+wanderer
p524
g25
g232
(lp525
g25
atp526
a(I85
V1820
p527
Vteamblack | random
p528
VGalt%2C+John%2C
p529
VThe+earthquake%3B
p530
g5
g6
(lp531
tp532
a(I86
V1820
p533
Vteamblack | random
p534
VOpie%2C+Amelia+Alderson%2C
p535
VTales+of+the+heart
p536
g5
g6
(lp537
tp538
a(I87
V1820
p539
Vteamblack | pbgothic | lavin_ghost | lavin_magic
p540
VIrving%2C+Washington%2C
p541
VThe+sketch-book+of+Geoffr
p542
g25
g232
(lp543
g25
atp544
a(I88
V1820
p545
Vteamblack | pbgothic | stew | lavin_magic | lavin_deranged
p546
VMaturin%2C+Charles+Robert%2C
p547
VMelmoth+the+wanderer
p548
g25
g232
(lp549
g25
atp550
a(I89
V1821
p551
Vteamred | pbgothic | stew | lavin_magic | lavin_deranged
p552
VMaturin%2C+Charles+Robert%2C
p553
VMelmoth+the+wanderer
p554
g25
g232
(lp555
g25
atp556
a(I90
V1821
p557
Vteamred | random
p558
VVarty-Smith%2C+Augusta+A.
p559
VMatthew+Tindale
p560
g5
g6
(lp561
tp562
a(I91
V1821
p563
Vteamred | random
p564
VScott%2C+Walter%2C
p565
VKenilworth
p566
g5
g6
(lp567
tp568
a(I92
V1823
p569
Vteamblack | random
p570
VLockhart%2C+J.+G.
p571
VReginald+Dalton
p572
g5
g6
(lp573
tp574
a(I93
V1823
p575
Vteamblack | stangothic
p576
VGaspey%2C+Thomas%2C
p577
VOther+times%3B+or%2C+the+monks+of+Leadenhall
p578
g25
g6
(lp579
g25
atp580
a(I94
V1823
p581
Vteamred | stangothic
p582
VSullivan%2C+Mary+Ann.
p583
VOwen+Castle%2C+or%2C+Which+is+the+heroine%3F
p584
g25
g6
(lp585
g25
atp586
a(I95
V1824
p587
Vteamblack | random
p588
VCooper%2C+James+Fenimore%2C
p589
VThe+pilot%3B
p590
g5
g6
(lp591
tp592
a(I96
V1826
p593
Vteamblack | random
p594
VWilkins%2C+George%2C
p595
VThe+convert
p596
g5
g6
(lp597
tp598
a(I97
V1826
p599
Vteamblack | femscifi | stew
p600
VShelley%2C+Mary+Wollstonecr
p601
VThe+last+man
p602
g33
g6
(lp603
g33
atp604
a(I98
V1826
p605
Vteamred | locghost | stew | lavin_ghost
p606
VAnonymous2
p607
VLegends+of+terror%21
p608
g475
Vlavin_ghost
p609
(lp610
g475
atp611
a(I99
V1826
p612
Vteamred | femscifi
p613
VShelley%2C+Mary+Wollstonecr
p614
VThe+last+man
p615
g33
g6
(lp616
g33
atp617
a(I100
V1826
p618
Vteamblack | pbgothic
p619
VRadcliffe%2C+Ann+Ward%2C
p620
VGaston+de+Blondeville
p621
g25
g6
(lp622
g25
atp623
a(I101
V1826
p624
Vteamred | pbgothic | stew
p625
VRadcliffe%2C+Ann+Ward%2C
p626
VGaston+de+Blondeville
p627
g25
g6
(lp628
g25
atp629
a(I102
V1826
p630
Vteamred | random
p631
VBanim%2C+John%2C
p632
VTales
p633
g5
g6
(lp634
tp635
a(I103
V1827
p636
Vteamblack | pbgothic | stew
p637
VLytton%2C+Edward+Bulwer+Lyt
p638
VFalkland
p639
g25
g6
(lp640
g25
atp641
a(I104
V1827
p642
Vteamblack | random
p643
VWard%2C+R.+Plumer
p644
VDe+Vere
p645
g5
g6
(lp646
tp647
a(I105
V1827
p648
Vteamred | femscifi | stew
p649
VLoudon%2C+Jane
p650
VThe+mummy%21
p651
g33
g6
(lp652
g33
atp653
a(I106
V1828
p654
Vnewgate | teamblack
p655
VGaspey%2C+Thomas%2C
p656
VHistory+of+George+Godfrey
p657
S'crime'
p658
g6
(lp659
g658
atp660
a(I107
V1828
p661
Vnewgate | teamblack
p662
VGaspey%2C+Thomas%2C
p663
VHistory+of+George+Godfrey
p664
g658
g6
(lp665
g658
atp666
a(I108
V1829
p667
Vteamred | det100
p668
VVidocq%2C+Eugne+Franois%2C
p669
VMemoirs+of+Vidocq
p670
g658
g6
(lp671
g658
atp672
a(I109
V1829
p673
Vteamred | random
p674
VLytton%2C+Edward+Bulwer+Lyt
p675
VDevereux
p676
g5
g6
(lp677
tp678
a(I110
V1830
p679
Vteamred | newgate | stew
p680
VLytton%2C+Edward+Bulwer+Lyt
p681
VPaul+Clifford
p682
g658
g6
(lp683
g658
atp684
a(I111
V1832
p685
Vteamred | locdetmyst | stew
p686
VHall%2C+Anna+Maria
p687
VThe+buccaneer
p688
g658
g6
(lp689
g658
atp690
a(I112
V1832
p691
Vteamblack | random
p692
VSpindler%2C+Carl%2C
p693
VThe+Jew
p694
g5
g6
(lp695
tp696
a(I113
V1832
p697
Vteamred | random
p698
VGalt%2C+John%2C
p699
VStanley+Buxton%3B
p700
g5
g6
(lp701
tp702
a(I114
V1832
p703
Vteamblack | random
p704
VDisraeli%2C+Benjamin%2C
p705
VContarini+Fleming%3B
p706
g5
g6
(lp707
tp708
a(I115
V1832
p709
Vteamred | random
p710
VDisraeli%2C+Benjamin%2C
p711
VContarini+Fleming%3B
p712
g5
g6
(lp713
tp714
a(I116
V1832
p715
Vteamblack | pbgothic | lavin_magic
p716
VIrving%2C+Washington%2C
p717
VTales+of+the+Alhambra
p718
g25
Vlavin_magic
p719
(lp720
g25
atp721
a(I117
V1832
p722
Vteamred | newgate
p723
VLytton%2C+Edward+Bulwer+Lyt
p724
VEugene+Aram
p725
g658
g6
(lp726
g658
atp727
a(I118
V1832
p728
Vteamred | locdetmyst | stew
p729
VHall%2C+Anna+Maria
p730
VThe+buccaneer
p731
g658
g6
(lp732
g658
atp733
a(I119
V1832
p734
Vteamred | random
p735
VJames%2C+G.+P.+R.
p736
VHenry+Masterton%3B
p737
g5
g6
(lp738
tp739
a(I120
V1832
p740
Vteamred | locdetmyst | stew
p741
VHall%2C+Anna+Maria
p742
VThe+buccaneer
p743
g658
g6
(lp744
g658
atp745
a(I121
V1833
p746
Vteamblack | pbgothic
p747
VLytton%2C+Edward+Bulwer+Lyt
p748
VGodolphin
p749
g25
g6
(lp750
g25
atp751
a(I122
V1833
p752
Vteamred | random
p753
VHall%2C+James%2C
p754
VThe+soldier%27s+bride+and+o
p755
g5
g6
(lp756
tp757
a(I123
V1834
p758
Vlockandkey | teamblack
p759
VPushkin%2C+Alexander+Sergeievich%2C
p760
VThe+Queen+of+Spades
p761
g257
g6
(lp762
g257
atp763
a(I124
V1834
p764
Vteamblack | random
p765
VWhite%2C+James%2C
p766
VSome+passages+in+the+life+of+Sir+Frizzle+Pumpkin
p767
g5
g6
(lp768
tp769
a(I125
V1834
p770
Vteamred | newgate | stangothic | lavin_ghost | lavin_magic
p771
VAinsworth%2C+William+Harris
p772
VRookwood
p773
g494
g232
(lp774
g25
ag658
atp775
a(I126
V1836
p776
Vteamblack | locscifi
p777
VGriffith%2C+Mary%2C
p778
VCamperdown%2C+or%2C+News+from
p779
g33
g6
(lp780
g33
atp781
a(I127
V1837
p782
Vnewgate | teamblack | stew
p783
VDickens%2C+Charles%2C
p784
VOliver+Twist
p785
g658
g6
(lp786
g658
atp787
a(I128
V1837
p788
Vteamblack | pbgothic | lavin_ghost
p789
VHawthorne%2C+Nathaniel%2C
p790
VTwice-told+tales
p791
g25
Vlavin_ghost
p792
(lp793
g25
atp794
a(I129
V1837
p795
Vteamblack | random
p796
VLover%2C+Samuel%2C
p797
VRory+O%27More
p798
g5
g6
(lp799
tp800
a(I130
V1838
p801
Vteamred | pbgothic | stew
p802
VDickens%2C+Charles%2C
p803
VOliver+Twist
p804
g25
g6
(lp805
g25
atp806
a(I131
V1838
p807
Vteamblack | random
p808
VTrollope%2C+Frances+Milton%2C
p809
VA+romance+of+Vienna
p810
g5
g6
(lp811
tp812
a(I132
V1838
p813
Vteamblack | anatscifi | drop
p814
VPoe%2C+Edgar+Allan%2C
p815
VThe+narrative+of+Arthur+G
p816
g33
g6
(lp817
g33
atp818
a(I133
V1838
p819
Vteamred | random
p820
VJames%2C+G.+P.+R.
p821
VThe+robber
p822
g5
g6
(lp823
tp824
a(I134
V1840
p825
Vteamred | random
p826
VHook%2C+Theodore+Edward%2C
p827
VCousin+Geoffrey%2C+the+old+
p828
g5
g6
(lp829
tp830
a(I135
V1840
p831
Vteamred | pbgothic | stew
p832
VAinsworth%2C+William+Harris
p833
VThe+Tower+of+London
p834
g25
g6
(lp835
g25
atp836
a(I136
V1840
p837
Vnewgate | teamblack
p838
VAinsworth%2C+William+Harris
p839
VJack+Sheppard+%3B
p840
g658
g6
(lp841
g658
atp842
a(I137
V1841
p843
Vteamblack | pbgothic | stew
p844
VDickens%2C+Charles%2C
p845
VThe+old+curiosity+shop
p846
g25
g6
(lp847
g25
atp848
a(I138
V1841
p849
Vdet100 | teamblack
p850
VPoe%2C+Edgar+Allan%2C
p851
VThe+Murder+in+the+Rue+Morgue+%28short+story%29
p852
g658
g6
(lp853
g658
atp854
a(I139
V1841
p855
Vteamblack | random
p856
VSinclair%2C+Catherine%2C
p857
VModern+flirtations
p858
g5
g6
(lp859
tp860
a(I140
V1842
p861
Vteamred | det100 | stew
p862
VPoe%2C+Edgar+Allan%2C
p863
VThe+Mystery+of+Marie+Roget+%28short+story%29
p864
g658
g6
(lp865
g658
atp866
a(I141
V1843
p867
Vteamred | pbgothic | lavin_ghost | lavin_magic | lavin_deranged
p868
VPoe%2C+Edgar+Allan%2C
p869
VTales+by+Edgar+Allan+Poe
p870
g25
g232
(lp871
g25
atp872
a(I142
V1843
p873
Vteamblack | random
p874
VJames%2C+G.+P.+R.
p875
VForest+days%3B
p876
g5
g6
(lp877
tp878
a(I143
V1843
p879
Vteamblack | random
p880
VEastlake%2C+Elizabeth%2C
p881
VLivonian+tales
p882
g5
g6
(lp883
tp884
a(I144
V1844
p885
Vteamred | pbgothic | stew
p886
VReynolds%2C+George+W.+M.
p887
VThe+mysteries+of+London
p888
g25
g6
(lp889
g25
atp890
a(I145
V1844
p891
Vteamblack | random
p892
VDickens%2C+Charles%2C
p893
VMartin+Chuzzlewit
p894
g5
g6
(lp895
tp896
a(I146
V1845
p897
Vteamred | det100
p898
VPoe%2C+Edgar+Allan%2C
p899
VThe+Purloined+Letter+%28short+story%29
p900
g658
g6
(lp901
g658
atp902
a(I147
V1845
p903
Vdet100 | teamblack | drop
p904
VPoe%2C+Edgar+Allan%2C
p905
VSelected+tales+of+mystery
p906
g658
g6
(lp907
g658
atp908
a(I148
V1846
p909
Vteamred | random
p910
VSewell%2C+Elizabeth+Missing
p911
VGertrude
p912
g5
g6
(lp913
tp914
a(I149
V1846
p915
Vteamred | pbgothic | stew
p916
VReynolds%2C+George+W.+M.
p917
VThe+mysteries+of+London
p918
g25
g6
(lp919
g25
atp920
a(I150
V1846
p921
Vteamred | pbgothic | lavin_ghost | lavin_magic | lavin_deranged
p922
VHawthorne%2C+Nathaniel%2C
p923
VMosses+from+an+old+manse
p924
g25
g232
(lp925
g25
atp926
a(I151
V1847
p927
Vteamred | pbgothic | lavin_deranged
p928
VBront%2C+Charlotte%2C
p929
VJane+Eyre
p930
g25
Vlavin_deranged
p931
(lp932
g25
atp933
a(I152
V1847
p934
Vteamred | pbgothic | stew | lavin_deranged
p935
VBront%2C+Emily%2C
p936
VWuthering+Heights
p937
g25
Vlavin_deranged
p938
(lp939
g25
atp940
a(I153
V1847
p941
Vteamred | random
p942
VCobbold%2C+Richard%2C
p943
VZenon
p944
g5
g6
(lp945
tp946
a(I154
V1847
p947
Vteamred | random
p948
VArthur%2C+T.+S.
p949
VLovers+and+husbands
p950
g5
g6
(lp951
tp952
a(I155
V1847
p953
Vteamblack | random
p954
VFroude%2C+James+Anthony%2C
p955
VShadows+of+the+clouds
p956
g5
g6
(lp957
tp958
a(I156
V1847
p959
Vteamred | pbgothic | stew | lavin_deranged
p960
VBront%2C+Charlotte%2C
p961
VJane+Eyre
p962
g25
Vlavin_deranged
p963
(lp964
g25
atp965
a(I157
V1848
p966
Vteamred | locghost | stew | lavin_ghost
p967
VSt.+Clair%2C+Henry.
p968
VTales+of+terror%3B+or%2C+The+
p969
g475
Vlavin_ghost
p970
(lp971
g475
atp972
a(I158
V1848
p973
Vteamblack | random
p974
VKavanagh%2C+Julia%2C
p975
VMadeleine
p976
g5
g6
(lp977
tp978
a(I159
V1849
p979
Vteamblack | random
p980
VHarris%2C+Alexander%2C
p981
VThe+emigrant+family+%3B
p982
g5
g6
(lp983
tp984
a(I160
V1849
p985
Vteamblack | pbgothic | lavin_magic
p986
VAinsworth%2C+William+Harris
p987
VThe+Lancashire+witches
p988
g25
Vlavin_magic
p989
(lp990
g25
atp991
a(I161
V1850
p992
Vteamblack | pbgothic
p993
VReynolds%2C+George+W.+M.
p994
VThe+mysteries+of+the+cour
p995
g25
g6
(lp996
g25
atp997
a(I162
V1850
p998
Vteamred | pbgothic | stew
p999
VHawthorne%2C+Nathaniel%2C
p1000
VThe+scarlet+letter
p1001
g25
g6
(lp1002
g25
atp1003
a(I163
V1850
p1004
Vteamblack | random
p1005
VArthur%2C+T.+S.
p1006
VTales+of+domestic+life
p1007
g5
g6
(lp1008
tp1009
a(I164
V1850
p1010
Vteamblack | random
p1011
VMyers%2C+P.+Hamilton
p1012
VThe+King+of+the+Hurons
p1013
g5
g6
(lp1014
tp1015
a(I165
V1851
p1016
Vteamred | random
p1017
VMacCabe%2C+William+Bernard%2C
p1018
VBertha
p1019
g5
g6
(lp1020
tp1021
a(I166
V1851
p1022
Vteamblack | pbgothic
p1023
VHawthorne%2C+Nathaniel%2C
p1024
VThe+house+of+the+seven+ga
p1025
g25
g6
(lp1026
g25
atp1027
a(I167
V1853
p1028
Vteamred | random
p1029
VLytton%2C+Edward+Bulwer+Lyt
p1030
V%22My+novel%2C%22
p1031
g5
g6
(lp1032
tp1033
a(I168
V1853
p1034
Vteamblack | pbgothic
p1035
VBront%2C+Charlotte%2C
p1036
VVillette
p1037
g25
g6
(lp1038
g25
atp1039
a(I169
V1853
p1040
Vteamblack | random
p1041
VIrving%2C+John+Treat%2C
p1042
VThe+attorney
p1043
g5
g6
(lp1044
tp1045
a(I170
V1853
p1046
Vteamred | det100
p1047
VDickens%2C+Charles%2C
p1048
VBleak+house
p1049
g658
g6
(lp1050
g658
atp1051
a(I171
V1858
p1052
Vteamred | random
p1053
VAustin%2C+Alfred%2C
p1054
VFive+years+of+it
p1055
g5
g6
(lp1056
tp1057
a(I172
V1858
p1058
Vteamblack | pbgothic
p1059
VMacDonald%2C+George%2C
p1060
VPhantastes
p1061
g25
g6
(lp1062
g25
atp1063
a(I173
V1858
p1064
Vteamblack | random
p1065
VManning%2C+Anne%2C
p1066
VThe+ladies+of+Bever+Hollo
p1067
g5
g6
(lp1068
tp1069
a(I174
V1858
p1070
Vteamblack | pbgothic | stew | lavin_magic
p1071
VMacDonald%2C+George%2C
p1072
VPhantastes
p1073
g25
Vlavin_magic
p1074
(lp1075
g25
atp1076
a(I175
V1859
p1077
Vdet100 | teamblack
p1078
VRussell%2C+William%2C
p1079
VRecollections+of+a+Detect
p1080
g658
g6
(lp1081
g658
atp1082
a(I176
V1859
p1083
Vteamblack | locdetmyst
p1084
VHamel%2C+Felix+John.
p1085
VHarry+Roughton%2C+or%2C+Remin
p1086
g658
g6
(lp1087
g658
atp1088
a(I177
V1859
p1089
Vteamred | random
p1090
VChorley%2C+Henry+Fothergill
p1091
VRoccabella
p1092
g5
g6
(lp1093
tp1094
a(I178
V1859
p1095
Vteamred | random
p1096
VDe+Forest%2C+John+William%2C
p1097
VSeacliff%3B
p1098
g5
g6
(lp1099
tp1100
a(I179
V1860
p1101
Vteamred | sensation | pbgothic | stew | lavin_deranged
p1102
VCollins%2C+Wilkie%2C
p1103
VThe+woman+in+white
p1104
g494
Vlavin_deranged
p1105
(lp1106
g25
aS'sensation'
p1107
atp1108
a(I180
V1860
p1109
Vteamred | random
p1110
VLawrence%2C+George+A.
p1111
VSword+and+gown
p1112
g5
g6
(lp1113
tp1114
a(I181
V1861
p1115
Vsensation | teamblack | stew
p1116
VWood%2C+Ellen%2C
p1117
VEast+Lynne
p1118
g1107
g6
(lp1119
g1107
atp1120
a(I182
V1862
p1121
Vteamred | sensation | stew
p1122
VBraddon%2C+M.+E.
p1123
VLady+Audley%27s+Secret
p1124
g1107
g6
(lp1125
g1107
atp1126
a(I183
V1863
p1127
Vteamred | random
p1128
VTrollope%2C+Anthony%2C
p1129
VRachel+Ray
p1130
g5
g6
(lp1131
tp1132
a(I184
V1863
p1133
Vteamred | sensation | stew
p1134
VReade%2C+Charles%2C
p1135
VHard+Cash
p1136
g1107
g6
(lp1137
g1107
atp1138
a(I185
V1863
p1139
Vteamred | blcrime
p1140
VFelix%2C+Charles%2C+pseud.
p1141
VNotting+Hill+Mystery
p1142
g5
g6
(lp1143
tp1144
a(I186
V1863
p1145
Vsensation | teamblack | stew
p1146
VReade%2C+Charles%2C
p1147
VHard+Cash
p1148
g1107
g6
(lp1149
g1107
atp1150
a(I187
V1863
p1151
Vsensation | teamblack | stew
p1152
VBraddon%2C+M.+E.
p1153
VAurora+Floyd
p1154
g1107
g6
(lp1155
g1107
atp1156
a(I188
V1864
p1157
Vsensation | pbgothic | teamblack | stew
p1158
VLe+Fanu%2C+Joseph+Sheridan%2C
p1159
VUncle+Silas
p1160
g494
g6
(lp1161
g25
ag1107
atp1162
a(I189
V1864
p1163
Vteamred | sensation | pbgothic | stew
p1164
VLe+Fanu%2C+Joseph+Sheridan%2C
p1165
VUncle+Silas
p1166
g494
g6
(lp1167
g25
ag1107
atp1168
a(I190
V1864
p1169
Vteamred | sensation | pbgothic | stew
p1170
VLe+Fanu%2C+Joseph+Sheridan%2C
p1171
VUncle+Silas
p1172
g494
g6
(lp1173
g25
ag1107
atp1174
a(I191
V1865
p1175
Vteamred | locdetective | stew
p1176
VWilliams%2C+John+Babbington
p1177
VLeaves+from+the+note-book
p1178
g658
g6
(lp1179
g658
atp1180
a(I192
V1865
p1181
Vteamred | anatscifi | stew
p1182
VVerne%2C+Jules%2C
p1183
VFrom+the+Earth+to+the+Moo
p1184
g33
g6
(lp1185
g33
atp1186
a(I193
V1865
p1187
Vteamblack | pbgothic
p1188
VDickens%2C+Charles%2C
p1189
VOur+mutual+friend
p1190
g25
g6
(lp1191
g25
atp1192
a(I194
V1865
p1193
Vteamred | sensation | stew
p1194
VOuida%2C
p1195
VStrathmore
p1196
g1107
g6
(lp1197
g1107
atp1198
a(I195
V1865
p1199
Vteamred | random
p1200
VMurdoch%2C+David.
p1201
VThe+Royalist%27s+daughter+a
p1202
g5
g6
(lp1203
tp1204
a(I196
V1866
p1205
Vteamred | det100
p1206
VGaboriau%2C+Emile%2C
p1207
VThe+widow+Lerouge
p1208
g658
g6
(lp1209
g658
atp1210
a(I197
V1866
p1211
Vteamred | sensation | pbgothic | stew
p1212
VCollins%2C+Wilkie%2C
p1213
VArmadale
p1214
g494
g6
(lp1215
g25
ag1107
atp1216
a(I198
V1866
p1217
Vteamblack | random
p1218
VKingsley%2C+Charles%2C
p1219
VHereward
p1220
g5
g6
(lp1221
tp1222
a(I199
V1866
p1223
Vteamred | lockandkey
p1224
VDostoevsky%2C+Fyodor%2C
p1225
VCrime+and+Punishment
p1226
g257
g6
(lp1227
g257
atp1228
a(I200
V1867
p1229
Vteamblack | random
p1230
VKirkus%2C+William%2C
p1231
VOnly+to+be+married
p1232
g5
g6
(lp1233
tp1234
a(I201
V1867
p1235
Vdet100 | teamblack
p1236
VGaboriau%2C+Emile%2C
p1237
VFile+no.+113
p1238
g658
g6
(lp1239
g658
atp1240
a(I202
V1867
p1241
Vteamred | sensation | stew
p1242
VBroughton%2C+Rhoda%2C
p1243
VNot+Wisely+But+Too+Well
p1244
g1107
g6
(lp1245
g1107
atp1246
a(I203
V1867
p1247
Vteamblack | random
p1248
VMhlbach%2C+L.
p1249
VMarie+Antoinette+and+her+
p1250
g5
g6
(lp1251
tp1252
a(I204
V1867
p1253
Vdet100 | teamblack
p1254
VGaboriau%2C+Emile%2C
p1255
VThe+mystery+of+Orcival
p1256
g658
g6
(lp1257
g658
atp1258
a(I205
V1868
p1259
Vteamblack | random
p1260
VAlcott%2C+Louisa+May%2C
p1261
VKitty%27s+class+day+%3B
p1262
g5
g6
(lp1263
tp1264
a(I206
V1868
p1265
Vteamred | random
p1266
VKnight%2C+Legh.
p1267
VTonic+bitters
p1268
g5
g6
(lp1269
tp1270
a(I207
V1868
p1271
Vteamred | det100 | pbgothic | lavin_deranged
p1272
VCollins%2C+Wilkie%2C
p1273
VThe+moonstone
p1274
g494
Vlavin_deranged
p1275
(lp1276
g25
ag658
atp1277
a(I208
V1868
p1278
Vteamblack | random
p1279
VCapes%2C+J.+M.
p1280
VThe+mosaic-worker%27s+daugh
p1281
g5
g6
(lp1282
tp1283
a(I209
V1868
p1284
Vteamblack | anatscifi | stew
p1285
VEllis%2C+Edward+S.
p1286
VThe+Steam+Man+of+the+Prairies
p1287
g33
g6
(lp1288
g33
atp1289
a(I210
V1868
p1290
Vdet100 | teamblack | stew
p1291
VSpeight%2C+T.+W.
p1292
VUnder+lock+and+key%3B+a+sto
p1293
g658
g6
(lp1294
g658
atp1295
a(I211
V1870
p1296
Vteamred | anatscifi
p1297
VVerne%2C+Jules%2C
p1298
VTwenty+thousand+leagues+u
p1299
g33
g6
(lp1300
g33
atp1301
a(I212
V1871
p1302
Vteamblack | random
p1303
VMarryat%2C+Florence%2C
p1304
VHer+lord+and+master
p1305
g5
g6
(lp1306
tp1307
a(I213
V1871
p1308
Vteamred | lockandkey | stew
p1309
VSpielhagen%2C+Friedrich%2C
p1310
VThe+Skeleton+in+the+House
p1311
g257
g6
(lp1312
g257
atp1313
a(I214
V1871
p1314
Vteamred | locdetective
p1315
VMcWatters%2C+George+S
p1316
VKnots+untied
p1317
g658
g6
(lp1318
g658
atp1319
a(I215
V1871
p1320
Vteamred | det100
p1321
VLe+Fanu%2C+Joseph+Sheridan%2C
p1322
VCheckmate
p1323
g658
g6
(lp1324
g658
atp1325
a(I216
V1871
p1326
Vteamblack | random
p1327
VFarjeon%2C+B.+L.
p1328
VJoshua+Marvel
p1329
g5
g6
(lp1330
tp1331
a(I217
V1871
p1332
Vsensation | teamblack | stew
p1333
VHardy%2C+Thomas%2C
p1334
VDesperate+Remedies
p1335
g1107
g6
(lp1336
g1107
atp1337
a(I218
V1871
p1338
Vteamblack | anatscifi
p1339
VLytton%2C+Edward+Bulwer+Lyt
p1340
VThe+coming+race
p1341
g33
g6
(lp1342
g33
atp1343
a(I219
V1872
p1344
Vteamblack | pbgothic | stew | lavin_ghost | lavin_magic | lavin_deranged
p1345
VLe+Fanu%2C+Joseph+Sheridan%2C
p1346
VIn+a+glass+darkly
p1347
g25
g232
(lp1348
g25
atp1349
a(I220
V1872
p1350
Vteamblack | anatscifi | stew
p1351
VFlammarion%2C+Camille%2C
p1352
VLumen
p1353
g33
g6
(lp1354
g33
atp1355
a(I221
V1874
p1356
Vteamred | random
p1357
VBenedict%2C+Frank+Lee%2C
p1358
VJohn+Worthington%27s+name
p1359
g5
g6
(lp1360
tp1361
a(I222
V1874
p1362
Vteamred | locdetective
p1363
VPinkerton%2C+Allan%2C
p1364
VThe+expressman+and+the+de
p1365
g658
g6
(lp1366
g658
atp1367
a(I223
V1874
p1368
Vteamred | locdetective
p1369
VPinkerton%2C+Allan%2C
p1370
VThe+expressman+and+the+de
p1371
g658
g6
(lp1372
g658
atp1373
a(I224
V1874
p1374
Vteamblack | random
p1375
VStockton%2C+Frank+Richard%2C
p1376
VWhat+might+have+been+expe
p1377
g5
g6
(lp1378
tp1379
a(I225
V1875
p1380
Vteamred | locdetective | drop
p1381
VPinkerton%2C+Allan%2C
p1382
VThe+somnambulist+and+the+
p1383
g658
g6
(lp1384
g658
atp1385
a(I226
V1875
p1386
Vteamred | det100
p1387
VDu+Boisgobey%2C+Fortun%2C
p1388
VThe+golden+tress
p1389
g658
g6
(lp1390
g658
atp1391
a(I227
V1875
p1392
Vteamred | random
p1393
VWalraven%2C+E.+G.
p1394
VThe+two+orphans%2C+or%2C+The+
p1395
g5
g6
(lp1396
tp1397
a(I228
V1875
p1398
Vteamblack | random
p1399
VOptic%2C+Oliver%2C
p1400
VGetting+an+indorser%2C+and+
p1401
g5
g6
(lp1402
tp1403
a(I229
V1875
p1404
Vteamblack | locdetmyst
p1405
VPinkerton%2C+Allan%2C
p1406
VClaude+Melnotte+as+a+dete
p1407
g658
g6
(lp1408
g658
atp1409
a(I230
V1875
p1410
Vteamblack | random
p1411
VMason%2C+Charles+Welsh.
p1412
VThe+rape+of+the+gamp%3B+or%2C
p1413
g5
g6
(lp1414
tp1415
a(I231
V1875
p1416
Vteamblack | locdetmyst | stew
p1417
VPinkerton%2C+Allan%2C
p1418
VClaude+Melnotte+as+a+dete
p1419
g658
g6
(lp1420
g658
atp1421
a(I232
V1876
p1422
Vdet100 | teamblack | stew
p1423
VRussell%2C+William+Clark%2C
p1424
VIs+he+the+man%3F
p1425
g658
g6
(lp1426
g658
atp1427
a(I233
V1876
p1428
Vlocdetective | teamblack
p1429
VPinkerton%2C+Allan%2C
p1430
VThe+spiritualists+and+the
p1431
g658
g6
(lp1432
g658
atp1433
a(I234
V1876
p1434
Vteamred | random
p1435
VRobinson%2C+Frederick+Willi
p1436
VAs+long+as+she+lived
p1437
g5
g6
(lp1438
tp1439
a(I235
V1876
p1440
Vteamred | random
p1441
VGrville%2C+Henry%2C
p1442
VMarrying+off+a+daughter
p1443
g5
g6
(lp1444
tp1445
a(I236
V1877
p1446
Vlockandkey | teamblack
p1447
VVerga%2C+Giovanni%2C
p1448
VThe+Castle+of+Trezza
p1449
g257
g6
(lp1450
g257
atp1451
a(I237
V1877
p1452
Vteamred | femscifi | stew
p1453
VCobbe%2C+Frances+Power%2C
p1454
VThe+age+of+science
p1455
g33
g6
(lp1456
g33
atp1457
a(I238
V1878
p1458
Vteamblack | locdetective | drop
p1459
VPinkerton%2C+Allan%2C
p1460
VCriminal+reminiscences+an
p1461
g658
g6
(lp1462
g658
atp1463
a(I239
V1878
p1464
Vteamred | random
p1465
VAuerbach%2C+Berthold%2C
p1466
VLandolin
p1467
g5
g6
(lp1468
tp1469
a(I240
V1878
p1470
Vteamred | pbgothic | stew | lavin_ghost
p1471
VCollins%2C+Wilkie%2C
p1472
VThe+haunted+hotel
p1473
g25
Vlavin_ghost
p1474
(lp1475
g25
atp1476
a(I241
V1878
p1477
Vteamred | det100
p1478
VGreen%2C+Anna+Katharine%2C
p1479
VThe+Leavenworth+case
p1480
g658
g6
(lp1481
g658
atp1482
a(I242
V1879
p1483
Vteamblack | random
p1484
VAdams%2C+Robert+Chamblet%2C
p1485
VOn+board+the+%22Rocket%22
p1486
g5
g6
(lp1487
tp1488
a(I243
V1879
p1489
Vteamred | locdetective
p1490
VPinkerton%2C+Allan%2C
p1491
VMississippi+outlaws+and+t
p1492
g658
g6
(lp1493
g658
atp1494
a(I244
V1880
p1495
Vteamred | locdetective | drop
p1496
VPinkerton%2C+Allan%2C
p1497
VBucholz+and+the+detective
p1498
g658
g6
(lp1499
g658
atp1500
a(I245
V1880
p1501
Vsensation | teamblack | stew
p1502
VBraddon%2C+M.+E.
p1503
VThe+Story+of+Barbara
p1504
g1107
g6
(lp1505
g1107
atp1506
a(I246
V1880
p1507
Vteamblack | random
p1508
VScudder%2C+Horace+Elisha%2C
p1509
VDoings+of+the+Bodley+fami
p1510
g5
g6
(lp1511
tp1512
a(I247
V1880
p1513
Vteamblack | anatscifi | locscifi
p1514
VGreg%2C+Percy%2C
p1515
VAcross+the+zodiac
p1516
g33
g6
(lp1517
g33
atp1518
a(I248
V1880
p1519
Vteamblack | anatscifi | locscifi
p1520
VGreg%2C+Percy%2C
p1521
VAcross+the+zodiac
p1522
g33
g6
(lp1523
g33
atp1524
a(I249
V1880
p1525
Vlockandkey | teamblack
p1526
VZhelikhovsky%2C+Vera%2C
p1527
VThe+General%27s+Will
p1528
g257
g6
(lp1529
g257
atp1530
a(I250
V1880
p1531
Vteamred | anatscifi
p1532
VGreg%2C+Percy%2C
p1533
VAcross+the+zodiac
p1534
g33
g6
(lp1535
g33
atp1536
a(I251
V1880
p1537
Vteamblack | locscifi
p1538
VCowan%2C+Frank%2C
p1539
VRevi-Lona
p1540
g33
g6
(lp1541
g33
atp1542
a(I252
V1880
p1543
Vteamred | det100
p1544
VAldrich%2C+Thomas+Bailey%2C
p1545
VThe+stillwater+tragedy
p1546
g658
g6
(lp1547
g658
atp1548
a(I253
V1881
p1549
Vteamred | locdetective | stew
p1550
VPinkerton%2C+Allan%2C
p1551
VThe+rail-road+forger+and+
p1552
g658
g6
(lp1553
g658
atp1554
a(I254
V1881
p1555
Vteamblack | locdetective | drop
p1556
VPinkerton%2C+Allan%2C
p1557
VThe+gypsies+and+the+detec
p1558
g658
g6
(lp1559
g658
atp1560
a(I255
V1881
p1561
Vteamblack | random
p1562
VSidney%2C+Margaret%2C
p1563
VFive+little+Peppers+and+h
p1564
g5
g6
(lp1565
tp1566
a(I256
V1882
p1567
Vteamred | pbgothic | stew
p1568
VOliphant%2C
p1569
VA+little+pilgrim+in+the+u
p1570
g25
g6
(lp1571
g25
atp1572
a(I257
V1883
p1573
Vdet100 | teamblack
p1574
VDu+Boisgobey%2C+Fortun%2C
p1575
VThe+detective%27s+eye+%3B
p1576
g658
g6
(lp1577
g658
atp1578
a(I258
V1883
p1579
Vteamred | random
p1580
VOliphant%2C+Laurence%2C
p1581
VAltiora+Peto
p1582
g5
g6
(lp1583
tp1584
a(I259
V1884
p1585
Vteamred | lockandkey | stew
p1586
VChekhov%2C+Anton%2C
p1587
VThe+Safety+Match
p1588
g257
g6
(lp1589
g257
atp1590
a(I260
V1885
p1591
Vteamred | pbgothic | lavin_magic
p1592
VHaggard%2C+H.+Rider
p1593
VKing+Solomon%27s+mines
p1594
g25
Vlavin_magic
p1595
(lp1596
g25
atp1597
a(I261
V1885
p1598
Vteamred | random
p1599
VPater%2C+Walter%2C
p1600
VMarius+the+Epicurean
p1601
g5
g6
(lp1602
tp1603
a(I262
V1885
p1604
Vdet100 | teamblack
p1605
VLynch%2C+Lawrence+L.
p1606
VDangerous+ground%2C+or%2C+The
p1607
g658
g6
(lp1608
g658
atp1609
a(I263
V1886
p1610
Vteamred | random
p1611
VLematre%2C+Jules%2C
p1612
VSerenus+and+other+stories
p1613
g5
g6
(lp1614
tp1615
a(I264
V1886
p1616
Vteamred | det100
p1617
VHume%2C+Fergus%2C
p1618
VThe+mystery+of+a+hansom+c
p1619
g658
g6
(lp1620
g658
atp1621
a(I265
V1886
p1622
Vteamblack | locdetective | drop
p1623
VPinkerton%2C+Allan%2C
p1624
VProfessional+thieves+and+
p1625
g658
g6
(lp1626
g658
atp1627
a(I266
V1886
p1628
Vteamred | femscifi | locscifi
p1629
VCorelli%2C+Marie%2C
p1630
VA+romance+of+two+worlds
p1631
g33
g6
(lp1632
g33
atp1633
a(I267
V1886
p1634
Vteamred | anatscifi | locscifi
p1635
VVerne%2C+Jules%2C
p1636
VThe+clipper+of+the+clouds
p1637
g33
g6
(lp1638
g33
atp1639
a(I268
V1886
p1640
Vteamred | pbgothic | anatscifi | stew
p1641
VStevenson%2C+Robert+Louis%2C
p1642
VStrange+case+of+Dr.+Jekyl
p1643
g494
g6
(lp1644
g25
ag33
atp1645
a(I269
V1887
p1646
Vteamred | random
p1647
VFawcett%2C+Edgar%2C
p1648
VOlivia+Delaplaine
p1649
g5
g6
(lp1650
tp1651
a(I270
V1887
p1652
Vteamblack | locghost | lavin_ghost
p1653
VAnonymous3
p1654
VDreamland+and+ghostland
p1655
g475
Vlavin_ghost
p1656
(lp1657
g475
atp1658
a(I271
V1887
p1659
Vteamred | anatscifi
p1660
VHudson%2C+W.+H.
p1661
VA+crystal+age
p1662
g33
g6
(lp1663
g33
atp1664
a(I272
V1887
p1665
Vdet100 | teamblack
p1666
VDoyle%2C+Arthur+Conan%2C
p1667
VA+study+in+scarlet
p1668
g658
g6
(lp1669
g658
atp1670
a(I273
V1887
p1671
Vteamblack | random
p1672
VClarke%2C+Rebecca+Sophia%2C
p1673
VDrones%27+honey
p1674
g5
g6
(lp1675
tp1676
a(I274
V1888
p1677
Vteamblack | locdetmyst
p1678
VGibbon%2C+Charles%2C
p1679
VBeyond+compare
p1680
g658
g6
(lp1681
g658
atp1682
a(I275
V1888
p1683
Vteamblack | anatscifi | locscifi
p1684
VDe+Mille%2C+James%2C
p1685
VA+strange+manuscript+foun
p1686
g33
g6
(lp1687
g33
atp1688
a(I276
V1888
p1689
Vteamred | locghost | lavin_ghost
p1690
VAnonymousGhost
p1691
VWeird+tid-bits
p1692
g475
Vlavin_ghost
p1693
(lp1694
g475
atp1695
a(I277
V1888
p1696
Vteamred | pbgothic | lavin_ghost
p1697
VKipling%2C+Rudyard%2C
p1698
VThe+phantom+rickshaw
p1699
g25
Vlavin_ghost
p1700
(lp1701
g25
atp1702
a(I278
V1888
p1703
Vteamblack | anatscifi | stew
p1704
VBesant%2C+Walter%2C
p1705
VThe+inner+house
p1706
g33
g6
(lp1707
g33
atp1708
a(I279
V1888
p1709
Vteamred | det100
p1710
VHaggard%2C+H.+Rider
p1711
VMr.+Meeson%27s+will
p1712
g658
g6
(lp1713
g658
atp1714
a(I280
V1888
p1715
Vteamblack | locghost | stew | lavin_ghost
p1716
VAnonymousGhost
p1717
VWeird+tid-bits
p1718
g475
Vlavin_ghost
p1719
(lp1720
g475
atp1721
a(I281
V1888
p1722
Vteamred | locghost | stew | lavin_ghost
p1723
VAnonymousGhost
p1724
VWeird+tid-bits
p1725
g475
Vlavin_ghost
p1726
(lp1727
g475
atp1728
a(I282
V1888
p1729
Vteamblack | random
p1730
VWard%2C+Humphry%2C
p1731
VRobert+Elsmere
p1732
g5
g6
(lp1733
tp1734
a(I283
V1888
p1735
Vteamred | det100 | stew
p1736
VGreen%2C+Anna+Katharine%2C
p1737
VBehind+closed+doors
p1738
g658
g6
(lp1739
g658
atp1740
a(I284
V1888
p1741
Vteamblack | pbgothic | stew
p1742
VKipling%2C+Rudyard%2C
p1743
VPlain+tales+from+the+hill
p1744
g25
g6
(lp1745
g25
atp1746
a(I285
V1888
p1747
Vteamred | locdetmyst
p1748
VGibbon%2C+Charles%2C
p1749
VBeyond+compare
p1750
g658
g6
(lp1751
g658
atp1752
a(I286
V1888
p1753
Vteamred | anatscifi | locscifi | stew
p1754
VBellamy%2C+Edward%2C
p1755
VLooking+backward%2C+2000-18
p1756
g33
g6
(lp1757
g33
atp1758
a(I287
V1888
p1759
Vteamblack | random
p1760
VFarjeon%2C+B.+L.
p1761
VMiser+Farebrother
p1762
g5
g6
(lp1763
tp1764
a(I288
V1888
p1765
Vteamblack | locdetmyst | stew
p1766
VGibbon%2C+Charles%2C
p1767
VBeyond+compare
p1768
g658
g6
(lp1769
g658
atp1770
a(I289
V1888
p1771
Vteamred | supernatural | random
p1772
VGoodman%2C+E.+J.
p1773
VToo+curious
p1774
g5
g6
(lp1775
tp1776
a(I290
V1888
p1777
Vteamblack | locghost | stew | lavin_ghost
p1778
VAnonymousGhost
p1779
VWeird+tid-bits
p1780
g475
Vlavin_ghost
p1781
(lp1782
g475
atp1783
a(I291
V1888
p1784
Vteamblack | locghost | lavin_ghost
p1785
VAnonymousGhost
p1786
VWeird+tid-bits
p1787
g475
Vlavin_ghost
p1788
(lp1789
g475
atp1790
a(I292
V1889
p1791
Vteamred | anatscifi
p1792
VStockton%2C+Frank+Richard%2C
p1793
VThe+great+war+syndicate
p1794
g33
g6
(lp1795
g33
atp1796
a(I293
V1889
p1797
Vteamblack | anatscifi | stew
p1798
VTwain%2C+Mark%2C
p1799
VA+Connecticut+Yankee+in+K
p1800
g33
g6
(lp1801
g33
atp1802
a(I294
V1890
p1803
Vteamred | pbgothic | stew | lavin_ghost
p1804
VLee%2C+Vernon%2C
p1805
VHauntings
p1806
g25
Vlavin_ghost
p1807
(lp1808
g25
atp1809
a(I295
V1890
p1810
Vteamblack | locghost | lavin_ghost
p1811
VAnonymousGhost2
p1812
VModern+ghosts%3B
p1813
g475
Vlavin_ghost
p1814
(lp1815
g475
atp1816
a(I296
V1890
p1817
Vteamred | random
p1818
VFranzos%2C+Karl+Emil%2C
p1819
VJudith+Trachtenberg
p1820
g5
g6
(lp1821
tp1822
a(I297
V1890
p1823
Vteamblack | locghost | stew | lavin_ghost
p1824
VAnonymousGhost2
p1825
VModern+ghosts
p1826
g475
Vlavin_ghost
p1827
(lp1828
g475
atp1829
a(I298
V1890
p1830
Vteamred | anatscifi
p1831
VDonnelly%2C+Ignatius%2C
p1832
VCsar%27s+column
p1833
g33
g6
(lp1834
g33
atp1835
a(I299
V1891
p1836
Vteamblack | pbgothic | lavin_magic | lavin_deranged
p1837
VWilde%2C+Oscar%2C
p1838
VThe+picture+of+Dorian+Gra
p1839
g25
g232
(lp1840
g25
atp1841
a(I300
V1891
p1842
Vteamblack | locscifi | stew
p1843
VWard%2C+Herbert+Dickinson%2C
p1844
VA+republic+without+a+pres
p1845
g33
g6
(lp1846
g33
atp1847
a(I301
V1891
p1848
Vteamblack | pbgothic | stew
p1849
VBierce%2C+Ambrose%2C
p1850
VTales+of+soldiers+and+civ
p1851
g25
g6
(lp1852
g25
atp1853
a(I302
V1891
p1854
Vteamblack | locdetmyst | stew
p1855
VAnonymous9
p1856
VEleven+possible+cases
p1857
g658
g6
(lp1858
g658
atp1859
a(I303
V1892
p1860
Vteamblack | random
p1861
VBierce%2C+Ambrose%2C
p1862
VThe+monk+and+the+hangman%27
p1863
g5
g6
(lp1864
tp1865
a(I304
V1892
p1866
Vteamred | det100
p1867
VZangwill%2C+Israel%2C
p1868
VThe+big+bow+mystery
p1869
g658
g6
(lp1870
g658
atp1871
a(I305
V1892
p1872
Vteamblack | locscifi
p1873
VBradshaw%2C+William+R.
p1874
VThe+goddess+of+Atvatabar
p1875
g33
g6
(lp1876
g33
atp1877
a(I306
V1892
p1878
Vteamred | det100 | stew
p1879
VDoyle%2C+Arthur+Conan%2C
p1880
VAdventures+of+Sherlock+Ho
p1881
g658
g6
(lp1882
g658
atp1883
a(I307
V1892
p1884
Vteamred | random
p1885
VTheuriet%2C+Andr%2C
p1886
VA+young+man+of+the+period
p1887
g5
g6
(lp1888
tp1889
a(I308
V1892
p1890
Vteamblack | pbgothic | stew
p1891
VBierce%2C+Ambrose%2C
p1892
VIn+the+midst+of+life%3B
p1893
g25
g6
(lp1894
g25
atp1895
a(I309
V1893
p1896
Vteamblack | anatscifi
p1897
VFlammarion%2C+Camille%2C
p1898
VOmega%3A+the+last+days+of+t
p1899
g33
g6
(lp1900
g33
atp1901
a(I310
V1893
p1902
Vteamblack | anatscifi
p1903
VFawcett%2C+E.+Douglas
p1904
VHartmann+the+anarchist
p1905
g33
g6
(lp1906
g33
atp1907
a(I311
V1893
p1908
Vteamblack | anatscifi
p1909
VGriffith%2C+George+Chetwynd
p1910
VThe+angel+of+the+revoluti
p1911
g33
g6
(lp1912
g33
atp1913
a(I312
V1893
p1914
Vteamblack | pbgothic | lavin_ghost
p1915
VBierce%2C+Ambrose%2C
p1916
VCan+such+things+be%3F
p1917
g25
Vlavin_ghost
p1918
(lp1919
g25
atp1920
a(I313
V1894
p1921
Vdet100 | teamblack
p1922
VMorrison%2C+Arthur%2C
p1923
VMartin+Hewitt%2C+investigat
p1924
g658
g6
(lp1925
g658
atp1926
a(I314
V1894
p1927
Vteamblack | random
p1928
VHenty%2C+G.+A.
p1929
VWhen+London+burned
p1930
g5
g6
(lp1931
tp1932
a(I315
V1894
p1933
Vdet100 | teamblack
p1934
VPemberton%2C+Max%2C
p1935
VJewel+mysteries+I+have+kn
p1936
g658
g6
(lp1937
g658
atp1938
a(I316
V1894
p1939
Vteamblack | anatscifi | stew
p1940
VAstor%2C+John+Jacob%2C
p1941
VA+journey+in+other+worlds
p1942
g33
g6
(lp1943
g33
atp1944
a(I317
V1894
p1945
Vteamblack | random
p1946
VTheuriet%2C+Andr%2C
p1947
VThe+Abb+Daniel
p1948
g5
g6
(lp1949
tp1950
a(I318
V1894
p1951
Vteamblack | random
p1952
VScott%2C+Hugh+Stowell%2C
p1953
VWith+edged+tools%3B
p1954
g5
g6
(lp1955
tp1956
a(I319
V1894
p1957
Vteamblack | locdetmyst
p1958
VDoyle%2C+Arthur+Conan%2C
p1959
VMemoirs+of+Sherlock+Holme
p1960
g658
g6
(lp1961
g658
atp1962
a(I320
V1895
p1963
Vteamred | pbgothic | lavin_magic
p1964
VCorelli%2C+Marie%2C
p1965
VThe+sorrows+of+Satan%3B
p1966
g25
Vlavin_magic
p1967
(lp1968
g25
atp1969
a(I321
V1895
p1970
Vteamred | locscifi | stew
p1971
VBesant%2C+Walter%2C
p1972
VBeyond+the+dreams+of+avar
p1973
g33
g6
(lp1974
g33
atp1975
a(I322
V1895
p1976
Vteamred | anatscifi | locscifi | stew
p1977
VWells%2C+H.+G.
p1978
VThe+time+machine%3B
p1979
g33
g6
(lp1980
g33
atp1981
a(I323
V1896
p1982
Vteamred | det100
p1983
VPost%2C+Melville+Davisson%2C
p1984
VThe+strange+schemes+of+Ra
p1985
g658
g6
(lp1986
g658
atp1987
a(I324
V1896
p1988
Vteamred | random
p1989
VMerrick%2C+Leonard%2C
p1990
VThis+stage+of+fools
p1991
g5
g6
(lp1992
tp1993
a(I325
V1896
p1994
Vteamred | lockandkey
p1995
VPalmarini%2C+I.+M.
p1996
VShadows
p1997
g257
g6
(lp1998
g257
atp1999
a(I326
V1897
p2000
Vteamblack | random
p2001
VHardy%2C+Thomas%2C
p2002
VThe+well-beloved%3B
p2003
g5
g6
(lp2004
tp2005
a(I327
V1897
p2006
Vteamblack | pbgothic | stew | lavin_magic
p2007
VStoker%2C+Bram%2C
p2008
VDracula
p2009
g25
Vlavin_magic
p2010
(lp2011
g25
atp2012
a(I328
V1897
p2013
Vteamred | det100 | stew
p2014
VMorrison%2C+Arthur%2C
p2015
VThe+Dorrington+deed-box
p2016
g658
g6
(lp2017
g658
atp2018
a(I329
V1897
p2019
Vteamred | femscifi
p2020
VWait%2C+Frona+Eunice%2C
p2021
VYermah+the+Dorado
p2022
g33
g6
(lp2023
g33
atp2024
a(I330
V1898
p2025
Vteamred | locdetmyst
p2026
VAnonymous1
p2027
VSeth+Bond%2C+or%2C+A+lost+tre
p2028
g658
g6
(lp2029
g658
atp2030
a(I331
V1898
p2031
Vteamred | locghost | stew | lavin_ghost
p2032
VBangs%2C+John+Kendrick%2C
p2033
VGhosts+I+have+met+and+som
p2034
g475
Vlavin_ghost
p2035
(lp2036
g475
atp2037
a(I332
V1898
p2038
Vteamblack | locghost | lavin_ghost
p2039
VLe+Braz%2C+Anatole%2C
p2040
VDealings+with+the+dead%3B
p2041
g475
Vlavin_ghost
p2042
(lp2043
g475
atp2044
a(I333
V1898
p2045
Vteamblack | random
p2046
VBarr%2C+Amelia+Edith+Huddle
p2047
VThe+lost+silver+of+Briffa
p2048
g5
g6
(lp2049
tp2050
a(I334
V1898
p2051
Vteamred | pbgothic | lavin_ghost | lavin_magic
p2052
VJames%2C+Henry%2C
p2053
VThe+Turn+of+the+Screw
p2054
g25
g232
(lp2055
g25
atp2056
a(I335
V1898
p2057
Vteamblack | anatscifi
p2058
VShiel%2C+M.+P.
p2059
VThe+yellow+danger
p2060
g33
g6
(lp2061
g33
atp2062
a(I336
V1898
p2063
Vteamred | random
p2064
VKipling%2C+Rudyard%2C
p2065
VThe+day%27s+work
p2066
g5
g6
(lp2067
tp2068
a(I337
V1899
p2069
Vteamred | random
p2070
VThornton%2C+Marcellus+Eugen
p2071
VMy+%22budie%22+and+I
p2072
g5
g6
(lp2073
tp2074
a(I338
V1899
p2075
Vdet100 | teamblack
p2076
VGreen%2C+Anna+Katharine%2C
p2077
VAgatha+Webb
p2078
g658
g6
(lp2079
g658
atp2080
a(I339
V1899
p2081
Vteamred | det100
p2082
VHornung%2C+E.+W.
p2083
VThe+amateur+cracksman
p2084
g658
g6
(lp2085
g658
atp2086
a(I340
V1899
p2087
Vteamred | locscifi
p2088
VWells%2C+H.+G.
p2089
VWhen+the+sleeper+wakes
p2090
g33
g6
(lp2091
g33
atp2092
a(I341
V1900
p2093
Vteamblack | random
p2094
VTarkington%2C+Booth%2C
p2095
VMonsieur+Beaucaire
p2096
g5
g6
(lp2097
tp2098
a(I342
V1900
p2099
Vteamblack | locdetective | drop
p2100
VPinkerton%2C+Allan%2C
p2101
VThe+model+town+and+the+de
p2102
g658
g6
(lp2103
g658
atp2104
a(I343
V1900
p2105
Vteamblack | locdetmyst | stew
p2106
VChapman%2C+Allen.
p2107
VBoys+of+Spring+Hill%2C+or%2C+
p2108
g658
g6
(lp2109
g658
atp2110
a(I344
V1900
p2111
Vteamblack | locdetective | drop
p2112
VPinkerton%2C+Allan%2C
p2113
VThe+model+town+and+the+de
p2114
g658
g6
(lp2115
g658
atp2116
a(I345
V1900
p2117
Vteamblack | locdetective | drop
p2118
VPinkerton%2C+Allan%2C
p2119
VThe+burglar%27s+fate+and+th
p2120
g658
g6
(lp2121
g658
atp2122
a(I346
V1900
p2123
Vteamred | locscifi | stew
p2124
VOsborne%2C+Duffield%2C
p2125
VThe+secret+of+the+crater
p2126
g33
g6
(lp2127
g33
atp2128
a(I347
V1901
p2129
Vteamblack | anatscifi | locscifi
p2130
VWells%2C+H.+G.
p2131
VThe+first+men+in+the+moon
p2132
g33
g6
(lp2133
g33
atp2134
a(I348
V1901
p2135
Vteamred | femscifi
p2136
VLing%2C+M.+A.+Moore+Bentley
p2137
VA+woman+of+Mars
p2138
g33
g6
(lp2139
g33
atp2140
a(I349
V1901
p2141
Vchifantasy | teamblack | chiscifi
p2142
VShiel%2C+M.+P.
p2143
VThe+purple+cloud
p2144
g33
g6
(lp2145
g33
atp2146
a(I350
V1902
p2147
Vteamred | locscifi
p2148
VOwen%2C+Harle+Oren.
p2149
VWelsh+rarebit+tales
p2150
g33
g6
(lp2151
g33
atp2152
a(I351
V1903
p2153
Vteamblack | locdetmyst
p2154
VDoyle%2C+Arthur+Conan%2C
p2155
VThe+return+of+Sherlock+Ho
p2156
g658
g6
(lp2157
g658
atp2158
a(I352
V1903
p2159
Vteamred | random
p2160
VIsham%2C+Frederic+Stewart%2C
p2161
VUnder+the+rose
p2162
g5
g6
(lp2163
tp2164
a(I353
V1903
p2165
Vteamblack | pbgothic | lavin_ghost
p2166
VBenson%2C+Arthur+Christophe
p2167
VThe+hill+of+trouble+and+o
p2168
g25
Vlavin_ghost
p2169
(lp2170
g25
atp2171
a(I354
V1903
p2172
Vteamred | lockandkey | stew
p2173
VMeyrink%2C+Gustav%2C
p2174
VThe+Man+on+the+Bottle
p2175
g257
g6
(lp2176
g257
atp2177
a(I355
V1903
p2178
Vteamblack | random
p2179
VLafargue%2C+Paul%2C
p2180
VThe+sale+of+an+appetite
p2181
g5
g6
(lp2182
tp2183
a(I356
V1904
p2184
Vteamred | locscifi
p2185
VHarris-Burland%2C+J.+B.
p2186
VThe+Princess+Thora
p2187
g33
g6
(lp2188
g33
atp2189
a(I357
V1904
p2190
Vdet100 | teamblack
p2191
VTracy%2C+Louis%2C
p2192
VThe+Albert+Gate+mystery
p2193
g658
g6
(lp2194
g658
atp2195
a(I358
V1904
p2196
Vteamblack | anatscifi | locscifi
p2197
VWells%2C+H.+G.
p2198
VThe+food+of+the+gods+and+
p2199
g33
g6
(lp2200
g33
atp2201
a(I359
V1904
p2202
Vteamred | locdetmyst | juvenile | drop
p2203
VHope%2C+Laura+Lee.
p2204
VThe+Bobbsey+twins%3B
p2205
g658
g6
(lp2206
g658
atp2207
a(I360
V1904
p2208
Vteamred | locghost | stew | lavin_ghost
p2209
VBaring-Gould%2C+S.
p2210
VA+book+of+ghosts
p2211
g475
Vlavin_ghost
p2212
(lp2213
g475
atp2214
a(I361
V1904
p2215
Vteamred | random
p2216
VOrcutt%2C+William+Dana%2C
p2217
VRobert+Cavelier
p2218
g5
g6
(lp2219
tp2220
a(I362
V1905
p2221
Vteamblack | anatscifi | stew
p2222
VHarper%2C+Vincent.
p2223
VThe+mortgage+on+the+brain
p2224
g33
g6
(lp2225
g33
atp2226
a(I363
V1905
p2227
Vteamblack | random
p2228
VGibbon%2C+Perceval%2C
p2229
VSalvator
p2230
g5
g6
(lp2231
tp2232
a(I364
V1905
p2233
Vteamred | locghost | lavin_ghost
p2234
VDickens%2C+Charles%2C
p2235
VA+Christmas+carol+in+pros
p2236
g475
Vlavin_ghost
p2237
(lp2238
g475
atp2239
a(I365
V1905
p2240
Vdet100 | teamblack | stew
p2241
VPain%2C+Barry%2C
p2242
VThe+memoirs+of+Constantin
p2243
g658
g6
(lp2244
g658
atp2245
a(I366
V1905
p2246
Vteamblack | pbgothic | stew
p2247
VDunsany%2C+Edward+John+More
p2248
VThe+gods+of+Pegna
p2249
g25
g6
(lp2250
g25
atp2251
a(I367
V1906
p2252
Vteamblack | locscifi | stew
p2253
VFord%2C+Douglas+Morey.
p2254
VA+time+of+terror
p2255
g33
g6
(lp2256
g33
atp2257
a(I368
V1906
p2258
Vteamblack | pbgothic | stew | lavin_ghost
p2259
VBlackwood%2C+Algernon%2C
p2260
VThe+empty+house
p2261
g25
Vlavin_ghost
p2262
(lp2263
g25
atp2264
a(I369
V1906
p2265
Vteamred | det100 | stew
p2266
VChambers%2C+Robert+W.
p2267
VThe+tracer+of+lost+person
p2268
g658
g6
(lp2269
g658
atp2270
a(I370
V1906
p2271
Vteamred | locghost | stew | lavin_ghost
p2272
VBuckingham%2C+Emma+May.
p2273
VModern+ghost+stories
p2274
g475
Vlavin_ghost
p2275
(lp2276
g475
atp2277
a(I371
V1906
p2278
Vteamblack | random
p2279
VCullum%2C+Ridgwell%2C
p2280
VThe+night-riders%3B
p2281
g5
g6
(lp2282
tp2283
a(I372
V1907
p2284
Vteamred | det100 | stew
p2285
VFutrelle%2C+Jacques%2C
p2286
VThe+thinking+machine
p2287
g658
g6
(lp2288
g658
atp2289
a(I373
V1907
p2290
Vdet100 | teamblack
p2291
VFreeman%2C+R.+Austin%2C
p2292
VThe+Red+Thumb+Mark
p2293
g658
g6
(lp2294
g658
atp2295
a(I374
V1907
p2296
Vteamred | locdetmyst | juvenile | drop
p2297
VHope%2C+Laura+Lee.
p2298
VThe+Bobbsey+twins+at+the+
p2299
g658
g6
(lp2300
g658
atp2301
a(I375
V1907
p2302
Vteamred | random
p2303
VMurfree%2C+Mary+Noailles%2C
p2304
VThe+windfall%3B
p2305
g5
g6
(lp2306
tp2307
a(I376
V1907
p2308
Vteamred | random
p2309
VHewlett%2C+Maurice%2C
p2310
VThe+stooping+lady
p2311
g5
g6
(lp2312
tp2313
a(I377
V1908
p2314
Vteamred | random
p2315
VPerrin%2C+Alice%2C
p2316
VThe+stronger+claim
p2317
g5
g6
(lp2318
tp2319
a(I378
V1908
p2320
Vdet100 | teamblack | stew
p2321
VBodkin%2C+M.+McDonnell
p2322
VThe+quests+of+Paul+Beck
p2323
g658
g6
(lp2324
g658
atp2325
a(I379
V1908
p2326
Vteamblack | locscifi
p2327
VHarding%2C+Ellison.
p2328
VThe+woman+who+vowed
p2329
g33
g6
(lp2330
g33
atp2331
a(I380
V1908
p2332
Vteamred | det100 | locdetmyst
p2333
VRinehart%2C+Mary+Roberts%2C
p2334
VThe+circular+staircase
p2335
g658
g6
(lp2336
g658
atp2337
a(I381
V1908
p2338
Vteamred | random
p2339
VMoore%2C+Frank+Frankfort%2C
p2340
VAn+amateur+adventuress
p2341
g5
g6
(lp2342
tp2343
a(I382
V1909
p2344
Vteamblack | random
p2345
VEgan%2C+Maurice+Francis%2C
p2346
VThe+wiles+of+Sexton+Magin
p2347
g5
g6
(lp2348
tp2349
a(I383
V1909
p2350
Vteamred | det100 | stew
p2351
VOrczy%2C+Emmuska+Orczy%2C
p2352
VThe+man+in+the+corner
p2353
g658
g6
(lp2354
g658
atp2355
a(I384
V1909
p2356
Vdet100 | teamblack | stew
p2357
VHawthorne%2C+Julian%2C
p2358
VThe+lock+and+key+library%3A
p2359
g658
g6
(lp2360
g658
atp2361
a(I385
V1909
p2362
Vteamblack | anatscifi | locscifi
p2363
VServiss%2C+Garrett+Putman%2C
p2364
VA+Columbus+of+space
p2365
g33
g6
(lp2366
g33
atp2367
a(I386
V1909
p2368
Vdet100 | teamblack
p2369
VPost%2C+Melville+Davisson%2C
p2370
VRandolph+Mason%2C+corrector
p2371
g658
g6
(lp2372
g658
atp2373
a(I387
V1909
p2374
Vteamblack | random
p2375
VAyscough%2C+John%2C
p2376
VA+Roman+tragedy+and+other
p2377
g5
g6
(lp2378
tp2379
a(I388
V1909
p2380
Vdet100 | teamblack
p2381
VRinehart%2C+Mary+Roberts%2C
p2382
VThe+man+in+lower+ten
p2383
g658
g6
(lp2384
g658
atp2385
a(I389
V1909
p2386
Vteamblack | random
p2387
VNewbolt%2C+Henry+John%2C
p2388
VThe+new+June
p2389
g5
g6
(lp2390
tp2391
a(I390
V1910
p2392
Vteamblack | random
p2393
VPalmer%2C+Frederick%2C
p2394
VThe+big+fellow
p2395
g5
g6
(lp2396
tp2397
a(I391
V1910
p2398
Vteamred | pbgothic | lavin_ghost
p2399
VWharton%2C+Edith%2C
p2400
VTales+of+men+and+ghosts
p2401
g25
Vlavin_ghost
p2402
(lp2403
g25
atp2404
a(I392
V1910
p2405
Vteamred | det100
p2406
VMason%2C+A.+E.+W.
p2407
VAt+the+Villa+Rose
p2408
g658
g6
(lp2409
g658
atp2410
a(I393
V1910
p2411
Vteamblack | random
p2412
VEggleston%2C+George+Cary%2C
p2413
VWestover+of+Wanalah%3B
p2414
g5
g6
(lp2415
tp2416
a(I394
V1910
p2417
Vdet100 | teamblack
p2418
VOrczy%2C+Emmuska+Orczy%2C
p2419
VLady+Molly+of+Scotland+Ya
p2420
g658
g6
(lp2421
g658
atp2422
a(I395
V1910
p2423
Vteamred | det100
p2424
VLeroux%2C+Gaston%2C
p2425
VThe+mystery+of+the+yellow
p2426
g658
g6
(lp2427
g658
atp2428
a(I396
V1910
p2429
Vteamred | random
p2430
VRoe%2C+Clifford+Griffith%2C
p2431
VPanders+and+their+white+s
p2432
g5
g6
(lp2433
tp2434
a(I397
V1911
p2435
Vteamblack | random
p2436
VJohnston%2C+Mary%2C
p2437
VThe+long+roll
p2438
g5
g6
(lp2439
tp2440
a(I398
V1911
p2441
Vteamred | det100 | stew
p2442
VWells%2C+Carolyn%2C
p2443
VThe+gold+bag
p2444
g658
g6
(lp2445
g658
atp2446
a(I399
V1911
p2447
Vdet100 | teamblack
p2448
VReeve%2C+Arthur+B.
p2449
VThe+poisoned+pen
p2450
g658
g6
(lp2451
g658
atp2452
a(I400
V1911
p2453
Vteamblack | random
p2454
VPearson%2C+Edmund+Lester%2C
p2455
VThe+librarian+at+play
p2456
g5
g6
(lp2457
tp2458
a(I401
V1911
p2459
Vteamred | random
p2460
VLummis%2C+Charles+Fletcher%2C
p2461
VThe+gold+fish+of+Gran+Chi
p2462
g5
g6
(lp2463
tp2464
a(I402
V1911
p2465
Vteamred | det100 | locdetmyst
p2466
VChesterton%2C+G.+K.
p2467
VThe+innocence+of+Father+B
p2468
g658
g6
(lp2469
g658
atp2470
a(I403
V1911
p2471
Vteamred | random
p2472
VCowan%2C+James%2C
p2473
VThe+adventures+of+Kimble+
p2474
g5
g6
(lp2475
tp2476
a(I404
V1911
p2477
Vteamred | pbgothic | stew | lavin_ghost
p2478
VCrawford%2C+F.+Marion
p2479
VWandering+ghosts
p2480
g25
Vlavin_ghost
p2481
(lp2482
g25
atp2483
a(I405
V1911
p2484
Vteamblack | locdetmyst | juvenile | drop
p2485
VAppleton%2C+Victor.
p2486
VTom+Swift+and+his+sky+rac
p2487
g658
g6
(lp2488
g658
atp2489
a(I406
V1912
p2490
Vteamred | anatscifi
p2491
VBurroughs%2C+Edgar+Rice%2C
p2492
VA+princess+of+Mars
p2493
g33
g6
(lp2494
g33
atp2495
a(I407
V1912
p2496
Vdet100 | teamblack
p2497
VPidgin%2C+Charles+Felton%2C
p2498
VThe+chronicles+of+Quincy+
p2499
g658
g6
(lp2500
g658
atp2501
a(I408
V1912
p2502
Vteamred | locdetective | stew
p2503
VBaum%2C+L.+Frank
p2504
VAunt+Jane%27s+nieces+on+vac
p2505
g658
g6
(lp2506
g658
atp2507
a(I409
V1912
p2508
Vteamblack | random
p2509
VRose%2C+William+Ganson%2C
p2510
VPutting+Marshville+on+the
p2511
g5
g6
(lp2512
tp2513
a(I410
V1912
p2514
Vteamred | anatscifi | stew
p2515
VDoyle%2C+Arthur+Conan%2C
p2516
VThe+lost+world
p2517
g33
g6
(lp2518
g33
atp2519
a(I411
V1912
p2520
Vteamblack | anatscifi | stew
p2521
VLondon%2C+Jack%2C
p2522
VThe+scarlet+plague
p2523
g33
g6
(lp2524
g33
atp2525
a(I412
V1912
p2526
Vteamblack | locghost | lavin_ghost
p2527
VGowans%2C+Adam+L.
p2528
VFamous+ghost-stories+by+E
p2529
g475
Vlavin_ghost
p2530
(lp2531
g475
atp2532
a(I413
V1913
p2533
Vteamblack | random
p2534
VFord%2C+Ford+Madox%2C
p2535
VMr.+Fleight
p2536
g5
g6
(lp2537
tp2538
a(I414
V1913
p2539
Vteamblack | random
p2540
VAbbott%2C+Eleanor+Hallowell
p2541
VThe+white+linen+nurse
p2542
g5
g6
(lp2543
tp2544
a(I415
V1913
p2545
Vteamblack | locdetmyst | stew
p2546
VCarson%2C+James.
p2547
VThe+saddle+boys+of+the+Ro
p2548
g658
g6
(lp2549
g658
atp2550
a(I416
V1913
p2551
Vdet100 | teamblack
p2552
VRinehart%2C+Mary+Roberts%2C
p2553
VThe+case+of+Jennie+Brice
p2554
g658
g6
(lp2555
g658
atp2556
a(I417
V1913
p2557
Vteamred | locdetmyst | juvenile | drop
p2558
VHope%2C+Laura+Lee.
p2559
VThe+outdoor+girls+at+Rain
p2560
g658
g6
(lp2561
g658
atp2562
a(I418
V1913
p2563
Vteamred | anatscifi
p2564
VBeresford%2C+J.+D.
p2565
VGoslings
p2566
g33
g6
(lp2567
g33
atp2568
a(I419
V1913
p2569
Vteamred | random
p2570
VSinclair%2C+May.
p2571
VThe+combined+maze
p2572
g5
g6
(lp2573
tp2574
a(I420
V1913
p2575
Vteamred | locghost | lavin_ghost
p2576
VAldridge%2C+Janet.
p2577
VThe+Meadow-Brook+girls+un
p2578
g475
Vlavin_ghost
p2579
(lp2580
g475
atp2581
a(I421
V1913
p2582
Vdet100 | teamblack
p2583
VGreen%2C+Anna+Katharine%2C
p2584
VRoom+number+3%2C+and+other+
p2585
g658
g6
(lp2586
g658
atp2587
a(I422
V1913
p2588
Vteamred | random
p2589
VKnight%2C+Arthur+Lee.
p2590
VTold+in+the+Indian+twilig
p2591
g5
g6
(lp2592
tp2593
a(I423
V1913
p2594
Vteamblack | locdetmyst | juvenile | drop
p2595
VEmerson%2C+Alice+B.
p2596
VRuth+Fielding+at+Briarwoo
p2597
g658
g6
(lp2598
g658
atp2599
a(I424
V1913
p2600
Vteamred | det100
p2601
VReeve%2C+Arthur+B.
p2602
VConstance+Dunlap%2C+woman+d
p2603
g658
g6
(lp2604
g658
atp2605
a(I425
V1913
p2606
Vteamblack | locdetmyst | juvenile | drop
p2607
VEmerson%2C+Alice+B.
p2608
VRuth+Fielding+at+Lighthou
p2609
g658
g6
(lp2610
g658
atp2611
a(I426
V1913
p2612
Vteamred | det100
p2613
VLeblanc%2C+Maurice%2C
p2614
VThe+confessions+of+Arsne
p2615
g658
g6
(lp2616
g658
atp2617
a(I427
V1913
p2618
Vteamblack | random
p2619
VDaviess%2C+Maria+Thompson.
p2620
VThe+tinder-box
p2621
g5
g6
(lp2622
tp2623
a(I428
V1914
p2624
Vteamred | random
p2625
VCullum%2C+Ridgwell%2C
p2626
VThe+way+of+the+strong%3B
p2627
g5
g6
(lp2628
tp2629
a(I429
V1914
p2630
Vteamblack | random
p2631
VBell%2C+J.+J.
p2632
VThe+misadventures+of+Jose
p2633
g5
g6
(lp2634
tp2635
a(I430
V1914
p2636
Vteamred | det100
p2637
VReeve%2C+Arthur+B.
p2638
VThe+dream+doctor
p2639
g658
g6
(lp2640
g658
atp2641
a(I431
V1914
p2642
Vteamblack | random
p2643
VLocke%2C+William+John%2C
p2644
VThe+fortunate+youth
p2645
g5
g6
(lp2646
tp2647
a(I432
V1914
p2648
Vdet100 | teamblack
p2649
VBramah%2C+Ernest%2C
p2650
VMax+Carrados
p2651
g658
g6
(lp2652
g658
atp2653
a(I433
V1914
p2654
Vteamred | locghost | lavin_ghost
p2655
VSeymour%2C+St.+John+D.
p2656
VTrue+Irish+ghost+stories
p2657
g475
Vlavin_ghost
p2658
(lp2659
g475
atp2660
a(I434
V1914
p2661
Vdet100 | teamblack
p2662
VVance%2C+Louis+Joseph%2C
p2663
VThe+lone+wolf
p2664
g658
g6
(lp2665
g658
atp2666
a(I435
V1915
p2667
Vteamred | det100 | stew
p2668
VOstrander%2C+Isabel%2C
p2669
VAt+one-thirty
p2670
g658
g6
(lp2671
g658
atp2672
a(I436
V1915
p2673
Vteamred | random
p2674
VBianchi%2C+Martha+Dickinson
p2675
VThe+Kiss+of+Apollo
p2676
g5
g6
(lp2677
tp2678
a(I437
V1915
p2679
Vteamred | random
p2680
VCresswell%2C+Clarice+M.
p2681
VThe+making+and+breaking+o
p2682
g5
g6
(lp2683
tp2684
a(I438
V1915
p2685
Vteamred | random
p2686
VFowler%2C+Ellen+Thorneycrof
p2687
VTen+degrees+backward
p2688
g5
g6
(lp2689
tp2690
a(I439
V1915
p2691
Vteamblack | locdetmyst | juvenile | drop
p2692
VSeaman%2C+Augusta+Huiell%2C
p2693
VThe+boarded-up+house
p2694
g658
g6
(lp2695
g658
atp2696
a(I440
V1915
p2697
Vteamblack | locdetmyst | juvenile | drop
p2698
VEmerson%2C+Alice+B.
p2699
VRuth+Fielding+and+the+gyp
p2700
g658
g6
(lp2701
g658
atp2702
a(I441
V1915
p2703
Vteamblack | locdetmyst | juvenile | drop
p2704
VRockwood%2C+Roy.
p2705
VDave+Dashaway%2C+air+champi
p2706
g658
g6
(lp2707
g658
atp2708
a(I442
V1916
p2709
Vteamred | locdetmyst | juvenile | drop
p2710
VHope%2C+Laura+Lee.
p2711
VThe+Bobbsey+twins+at+home
p2712
g658
g6
(lp2713
g658
atp2714
a(I443
V1916
p2715
Vteamred | det100
p2716
VWells%2C+Carolyn%2C
p2717
VThe+bride+of+a+moment
p2718
g658
g6
(lp2719
g658
atp2720
a(I444
V1916
p2721
Vteamred | random
p2722
VWinterburn%2C+Florence+Hull
p2723
VLiberty+hall
p2724
g5
g6
(lp2725
tp2726
a(I445
V1916
p2727
Vteamblack | random
p2728
VSherwood%2C+Margaret+Polloc
p2729
VThe+worn+doorstep
p2730
g5
g6
(lp2731
tp2732
a(I446
V1916
p2733
Vdet100 | teamblack | stew
p2734
VBiggers%2C+Earl+Derr%2C
p2735
VThe+agony+column
p2736
g658
g6
(lp2737
g658
atp2738
a(I447
V1917
p2739
Vteamred | locdetmyst
p2740
VDoyle%2C+Arthur+Conan%2C
p2741
VHis+last+bow
p2742
g658
g6
(lp2743
g658
atp2744
a(I448
V1917
p2745
Vteamred | random
p2746
VKerr%2C+Doris+Boake%2C
p2747
VPainted+clay
p2748
g5
g6
(lp2749
tp2750
a(I449
V1917
p2751
Vteamred | random
p2752
VLondon%2C+Jack%2C
p2753
VMichael%2C+brother+of+Jerry
p2754
g5
g6
(lp2755
tp2756
a(I450
V1917
p2757
Vteamblack | locdetmyst | juvenile | drop
p2758
VHope%2C+Laura+Lee.
p2759
VThe+Bobbsey+twins+in+a+gr
p2760
g658
g6
(lp2761
g658
atp2762
a(I451
V1917
p2763
Vteamblack | locdetmyst | juvenile | drop
p2764
VSeaman%2C+Augusta+Huiell%2C
p2765
VThe+girl+next+door
p2766
g658
g6
(lp2767
g658
atp2768
a(I452
V1917
p2769
Vteamblack | locdetmyst | juvenile | drop
p2770
VHope%2C+Laura+Lee.
p2771
VThe+Bobbsey+twins+on+Blue
p2772
g658
g6
(lp2773
g658
atp2774
a(I453
V1918
p2775
Vdet100 | teamblack | stew
p2776
VPost%2C+Melville+Davisson%2C
p2777
VUncle+Abner%2C+master+of+my
p2778
g658
g6
(lp2779
g658
atp2780
a(I454
V1918
p2781
Vteamblack | locdetmyst | juvenile | drop
p2782
VEmerson%2C+Alice+B.
p2783
VRuth+Fielding+in+the+Red+
p2784
g658
g6
(lp2785
g658
atp2786
a(I455
V1918
p2787
Vteamblack | locghost | stew | lavin_ghost
p2788
VFrench%2C+Joseph+Lewis%2C
p2789
VGreat+ghost+stories%2C+sele
p2790
g475
Vlavin_ghost
p2791
(lp2792
g475
atp2793
a(I456
V1918
p2794
Vteamred | random
p2795
VHewlett%2C+Maurice%2C
p2796
VGudrid+the+Fair
p2797
g5
g6
(lp2798
tp2799
a(I457
V1918
p2800
Vteamred | random
p2801
VWebster%2C+F.+A.+M.
p2802
VThe+hound+of+Cullan
p2803
g5
g6
(lp2804
tp2805
a(I458
V1918
p2806
Vteamblack | locdetmyst | juvenile | drop
p2807
VHope%2C+Laura+Lee.
p2808
VThe+Bobbsey+twins+on+the+
p2809
g658
g6
(lp2810
g658
atp2811
a(I459
V1918
p2812
Vdet100 | teamblack
p2813
VButler%2C+Ellis+Parker%2C
p2814
VPhilo+Gubb
p2815
g658
g6
(lp2816
g658
atp2817
a(I460
V1918
p2818
Vteamred | random
p2819
VHunt%2C+Edward+Eyre%2C
p2820
VTales+from+a+famished+lan
p2821
g5
g6
(lp2822
tp2823
a(I461
V1919
p2824
Vteamred | det100
p2825
VOstrander%2C+Isabel%2C
p2826
VThe+twenty-six+clues
p2827
g658
g6
(lp2828
g658
atp2829
a(I462
V1919
p2830
Vteamred | pbgothic | lavin_ghost
p2831
VJames%2C+M.+R.
p2832
VA+thin+ghost+and+others
p2833
g25
Vlavin_ghost
p2834
(lp2835
g25
atp2836
a(I463
V1919
p2837
Vteamblack | locdetmyst | juvenile | drop
p2838
VHope%2C+Laura+Lee.
p2839
VThe+Bobbsey+twins+in+Wash
p2840
g658
g6
(lp2841
g658
atp2842
a(I464
V1919
p2843
Vteamblack | locghost | stew | lavin_ghost
p2844
VPease%2C+Howard%2C
p2845
VBorder+ghost+stories
p2846
g475
Vlavin_ghost
p2847
(lp2848
g475
atp2849
a(I465
V1919
p2850
Vteamred | random
p2851
VAtherton%2C+Gertrude+Frankl
p2852
VTransplanted%3B
p2853
g5
g6
(lp2854
tp2855
a(I466
V1919
p2856
Vteamblack | locdetmyst | juvenile | drop
p2857
VEmerson%2C+Alice+B.
p2858
VRuth+Fielding+homeward+bo
p2859
g658
g6
(lp2860
g658
atp2861
a(I467
V1919
p2862
Vteamred | pbgothic
p2863
VCabell%2C+James+Branch%2C
p2864
VJurgen
p2865
g25
g6
(lp2866
g25
atp2867
a(I468
V1920
p2868
Vteamblack | locdetmyst | juvenile | drop
p2869
VSnell%2C+Roy+J.
p2870
VTriple+spies
p2871
g658
g6
(lp2872
g658
atp2873
a(I469
V1920
p2874
Vteamblack | random
p2875
VBailey%2C+Arthur+Scott%2C
p2876
VThe+tale+of+Grumpy+Weasel
p2877
g5
g6
(lp2878
tp2879
a(I470
V1920
p2880
Vteamred | random
p2881
VBenson%2C+E.+F.
p2882
V%22Queen+Lucia%22
p2883
g5
g6
(lp2884
tp2885
a(I471
V1920
p2886
Vteamred | chifantasy | anatscifi | stew
p2887
VLindsay%2C+David%2C
p2888
VVoyage+To+Arcturus
p2889
g33
g6
(lp2890
g33
atp2891
a(I472
V1920
p2892
Vchirandom | teamred
p2893
VRaine%2C+William+MacLeod%2C
p2894
VOh%3A+you+Tex%21
p2895
g5
g6
(lp2896
tp2897
a(I473
V1920
p2898
Vteamred | locdetmyst | juvenile | drop
p2899
VHope%2C+Laura+Lee.
p2900
VThe+Bobbsey+twins+in+the+
p2901
g658
g6
(lp2902
g658
atp2903
a(I474
V1920
p2904
Vchirandom | teamred
p2905
VMartin%2C+Helen+Reimensnyder%2C
p2906
VThe+schoolmaster+of+Hessville
p2907
g5
g6
(lp2908
tp2909
a(I475
V1920
p2910
Vteamred | locghost | stew | lavin_ghost
p2911
VFrench%2C+Joseph+Lewis%2C
p2912
VThe+best+psychic+stories
p2913
g475
Vlavin_ghost
p2914
(lp2915
g475
atp2916
a(I476
V1920
p2917
Vchifantasy | teamblack
p2918
VLondon%2C+Jack%2C
p2919
VHearts+of+three
p2920
g5
g6
(lp2921
tp2922
a(I477
V1920
p2923
Vchiutopia | teamblack
p2924
VLindsay%2C+Vachel%2C
p2925
VThe+golden+book+of+Spring
p2926
g33
g6
(lp2927
g33
atp2928
a(I478
V1920
p2929
Vchirandom | teamred
p2930
VStringer%2C+Arthur%2C
p2931
VThe+prairie+omnibus
p2932
g5
g6
(lp2933
tp2934
a(I479
V1920
p2935
Vdet100 | teamblack
p2936
VStevenson%2C+Burton+Egbert%2C
p2937
VThe+gloved+hand%3B
p2938
g658
g6
(lp2939
g658
atp2940
a(I480
V1920
p2941
Vteamblack | anatscifi | stew
p2942
VShanks%2C+Edward%2C
p2943
VThe+people+of+the+ruins
p2944
g33
g6
(lp2945
g33
atp2946
a(I481
V1920
p2947
Vdet100 | teamblack | cozy
p2948
VChristie%2C+Agatha%2C
p2949
VThe+mysterious+affair+at+
p2950
g658
g6
(lp2951
g658
atp2952
a(I482
V1920
p2953
Vteamred | random
p2954
VHewlett%2C+Maurice%2C
p2955
VThe+light+heart
p2956
g5
g6
(lp2957
tp2958
a(I483
V1920
p2959
Vchirandom | teamblack
p2960
VJames%2C+Henry%2C
p2961
VMaster+Eustace
p2962
g5
g6
(lp2963
tp2964
a(I484
V1921
p2965
Vteamred | random
p2966
VRice%2C+Alice+Caldwell+Hega
p2967
VQuin
p2968
g5
g6
(lp2969
tp2970
a(I485
V1921
p2971
Vchirandom | teamred
p2972
VTraprock%2C+Walter+E.
p2973
VThe+cruise+of+the+Kawa+%3A+
p2974
g5
g6
(lp2975
tp2976
a(I486
V1921
p2977
Vchirandom | chifantasy | teamblack
p2978
VByrne%2C+Donn%2C
p2979
VMesser+Marco+Polo
p2980
g5
g6
(lp2981
tp2982
a(I487
V1921
p2983
Vteamred | locdetmyst | juvenile | drop
p2984
VSeaman%2C+Augusta+Huiell%2C
p2985
VThe+dragon%27s+secret
p2986
g658
g6
(lp2987
g658
atp2988
a(I488
V1921
p2989
Vteamblack | chiscifi
p2990
VBurroughs%2C+Edgar+Rice%2C
p2991
VThe+mucker
p2992
g33
g6
(lp2993
g33
atp2994
a(I489
V1921
p2995
Vchirandom | teamred
p2996
VNathan%2C+Robert%2C
p2997
VAutumn
p2998
g5
g6
(lp2999
tp3000
a(I490
V1921
p3001
Vteamred | locghost | stew | lavin_ghost
p3002
VAnonymousGhost3
p3003
VHumorous+ghost+stories
p3004
g475
Vlavin_ghost
p3005
(lp3006
g475
atp3007
a(I491
V1921
p3008
Vteamred | locghost | lavin_ghost
p3009
VRhys%2C+Ernest%2C
p3010
VThe+haunters+%26+the+haunte
p3011
g475
Vlavin_ghost
p3012
(lp3013
g475
atp3014
a(I492
V1921
p3015
Vteamred | random
p3016
VSackville-West%2C+V.
p3017
VThe+dragon+in+shallow+wat
p3018
g5
g6
(lp3019
tp3020
a(I493
V1921
p3021
Vchirandom | teamred
p3022
VPutnam%2C+Nina+Wilcox%2C
p3023
VWest+Broadway
p3024
g5
g6
(lp3025
tp3026
a(I494
V1921
p3027
Vteamred | chifantasy
p3028
VBennett%2C+John%2C
p3029
VMadame+Margot
p3030
g5
g6
(lp3031
tp3032
a(I495
V1921
p3033
Vchirandom | teamred
p3034
VSawyer%2C+Ruth%2C
p3035
VThe+silver+sixpence
p3036
g5
g6
(lp3037
tp3038
a(I496
V1922
p3039
Vteamred | random
p3040
VLewis%2C+Sinclair%2C
p3041
VBabbitt
p3042
g5
g6
(lp3043
tp3044
a(I497
V1922
p3045
Vteamred | femscifi | anatscifi
p3046
VHamilton%2C+Cicely%2C
p3047
VTheodore+savage
p3048
g33
g6
(lp3049
g33
atp3050
a(I498
V1922
p3051
Vchirandom | teamred
p3052
VMarquand%2C+John+P.
p3053
VThe+unspeakable+gentleman
p3054
g5
g6
(lp3055
tp3056
a(I499
V1922
p3057
Vteamblack | locghost | stew | lavin_ghost
p3058
VMunford%2C+George+Frederick
p3059
VGhosts+and+legends+of+Sou
p3060
g475
Vlavin_ghost
p3061
(lp3062
g475
atp3063
a(I500
V1922
p3064
Vchirandom | teamred
p3065
VMasters%2C+Edgar+Lee%2C
p3066
VChildren+of+the+market+pl
p3067
g5
g6
(lp3068
tp3069
a(I501
V1922
p3070
Vteamblack | locdetmyst | locghost | stew | lavin_ghost
p3071
VFrench%2C+Joseph+Lewis%2C
p3072
VMasterpieces+of+mystery
p3073
g494
Vlavin_ghost
p3074
(lp3075
g475
ag658
atp3076
a(I502
V1922
p3077
Vteamred | random
p3078
VSquier%2C+Emma-Lindsay%2C
p3079
VThe+wild+heart
p3080
g5
g6
(lp3081
tp3082
a(I503
V1922
p3083
Vteamred | random
p3084
VForrest%2C+Michael+D
p3085
VFather+Justin
p3086
g5
g6
(lp3087
tp3088
a(I504
V1922
p3089
Vteamred | locdetmyst
p3090
VDougherty%2C+Harry+V.
p3091
VWell--+who+killed+him%3F
p3092
g658
g6
(lp3093
g658
atp3094
a(I505
V1922
p3095
Vteamred | det100
p3096
VWells%2C+Carolyn%2C
p3097
VThe+vanishing+of+Betty+Va
p3098
g658
g6
(lp3099
g658
atp3100
a(I506
V1922
p3101
Vchirandom | teamblack
p3102
VSampson%2C+Emma+Speed%2C
p3103
VThe+shorn+lamb
p3104
g5
g6
(lp3105
tp3106
a(I507
V1922
p3107
Vchirandom | teamred | juvenile | drop
p3108
VPaine%2C+Ralph+Delahaye%2C
p3109
VBlackbeard%3A+buccaneer
p3110
g5
g6
(lp3111
tp3112
a(I508
V1922
p3113
Vteamblack | chiscifi | stew
p3114
VBurroughs%2C+Edgar+Rice%2C
p3115
VThe+chessmen+of+Mars
p3116
g33
g6
(lp3117
g33
atp3118
a(I509
V1922
p3119
Vteamred | random
p3120
VMarquand%2C+John+P.
p3121
VThe+unspeakable+gentleman
p3122
g5
g6
(lp3123
tp3124
a(I510
V1922
p3125
Vchirandom | teamred
p3126
VKyne%2C+Peter+B.
p3127
VCappy+Ricks+retires
p3128
g5
g6
(lp3129
tp3130
a(I511
V1922
p3131
Vchirandom | teamred
p3132
VHough%2C+Emerson%2C
p3133
VThe+young+Alaskans+on+the
p3134
g5
g6
(lp3135
tp3136
a(I512
V1922
p3137
Vteamblack | random
p3138
VJewell%2C+Edward+Alden%2C
p3139
VThe+moth+decides
p3140
g5
g6
(lp3141
tp3142
a(I513
V1922
p3143
Vteamred | locdetmyst | juvenile | drop
p3144
VEmerson%2C+Alice+B.
p3145
VRuth+Fielding+on+the+St.+
p3146
g658
g6
(lp3147
g658
atp3148
a(I514
V1922
p3149
Vteamblack | locdetmyst | juvenile | drop
p3150
VHope%2C+Laura+Lee.
p3151
VThe+Bobbsey+Twins+at+the+
p3152
g658
g6
(lp3153
g658
atp3154
a(I515
V1922
p3155
Vchirandom | teamblack
p3156
VTraprock%2C+Walter+E.
p3157
VMy+northern+exposure
p3158
g5
g6
(lp3159
tp3160
a(I516
V1922
p3161
Vteamblack | locdetmyst | locghost | lavin_ghost
p3162
VFrench%2C+Joseph+Lewis%2C
p3163
VMasterpieces+of+mystery
p3164
g494
Vlavin_ghost
p3165
(lp3166
g475
ag658
atp3167
a(I517
V1922
p3168
Vteamblack | locdetmyst | locghost | lavin_ghost
p3169
VFrench%2C+Joseph+Lewis%2C
p3170
VMasterpieces+of+mystery
p3171
g494
Vlavin_ghost
p3172
(lp3173
g475
ag658
atp3174
a(I518
V1922
p3175
Vteamblack | locdetmyst | locghost | lavin_ghost
p3176
VFrench%2C+Joseph+Lewis%2C
p3177
VMasterpieces+of+mystery
p3178
g494
Vlavin_ghost
p3179
(lp3180
g475
ag658
atp3181
a(I519
V1923
p3182
Vteamred | chimyst
p3183
VOppenheim%2C+E.+Phillips%2C
p3184
VMichael%27s+evil+deeds
p3185
g257
g6
(lp3186
g257
atp3187
a(I520
V1923
p3188
Vdet100 | teamblack
p3189
VPhillpotts%2C+Eden%2C
p3190
VThe+red+Redmaynes
p3191
g658
g6
(lp3192
g658
atp3193
a(I521
V1923
p3194
Vteamred | chimyst
p3195
VLe+Queux%2C+William%2C
p3196
VThe+voice+from+the+void
p3197
g257
g6
(lp3198
g257
atp3199
a(I522
V1923
p3200
Vteamred | chiscifi | stew
p3201
VBurroughs%2C+Edgar+Rice%2C
p3202
VPellucidar
p3203
g33
g6
(lp3204
g33
atp3205
a(I523
V1923
p3206
Vteamred | chiscifi | stew
p3207
VWells%2C+H.+G.
p3208
VMen+like+gods
p3209
g33
g6
(lp3210
g33
atp3211
a(I524
V1924
p3212
Vchirandom | teamblack
p3213
VBromfield%2C+Louis%2C
p3214
VThe+green+bay+tree
p3215
g5
g6
(lp3216
tp3217
a(I525
V1924
p3218
Vteamblack | chimyst
p3219
VFreeman%2C+R.+Austin%2C
p3220
VThe+red+thumb+mark
p3221
g257
g6
(lp3222
g257
atp3223
a(I526
V1924
p3224
Vteamblack | chimyst
p3225
VFletcher%2C+J.+S.
p3226
VThe+safety+pin
p3227
g257
g6
(lp3228
g257
atp3229
a(I527
V1925
p3230
Vteamblack | chiscifi | stew
p3231
VBurroughs%2C+Edgar+Rice%2C
p3232
VThe+moon+men
p3233
g33
g6
(lp3234
g33
atp3235
a(I528
V1925
p3236
Vchirandom | teamred
p3237
VFord%2C+Ford+Madox%2C
p3238
VNo+more+parades
p3239
g5
g6
(lp3240
tp3241
a(I529
V1925
p3242
Vchirandom | det100 | teamblack | stew
p3243
VPhillpotts%2C+Eden%2C
p3244
VA+voice+from+the+dark
p3245
g658
g6
(lp3246
g658
atp3247
a(I530
V1925
p3248
Vteamred | chimyst
p3249
VKnox%2C+Ronald+Arbuthnott%2C
p3250
VThe+viaduct+murder
p3251
g257
g6
(lp3252
g257
atp3253
a(I531
V1925
p3254
Vchirandom | det100 | teamblack
p3255
VChristie%2C+Agatha%2C
p3256
VPoirot+investigates
p3257
g658
g6
(lp3258
g658
atp3259
a(I532
V1926
p3260
Vteamred | chifantasy
p3261
VFraser%2C+Ronald%2C
p3262
VFlower+phantoms
p3263
g5
g6
(lp3264
tp3265
a(I533
V1926
p3266
Vchirandom | teamblack | chimyst
p3267
VGask%2C+Arthur%2C
p3268
VCloud%3A+the+smiter
p3269
g257
g6
(lp3270
g257
atp3271
a(I534
V1926
p3272
Vteamred | det100
p3273
VVan+Dine%2C+S.+S
p3274
VThe+Benson+murder+case
p3275
g658
g6
(lp3276
g658
atp3277
a(I535
V1926
p3278
Vteamred | det100 | chimyst
p3279
VBiggers%2C+Earl+Derr%2C
p3280
VFifty+candles
p3281
g658
g6
(lp3282
g658
atp3283
a(I536
V1927
p3284
Vchifantasy | teamblack
p3285
VMirrlees%2C+Hope%2C
p3286
VLud-in-the-Mist
p3287
g5
g6
(lp3288
tp3289
a(I537
V1927
p3290
Vchirandom | chifantasy | teamblack
p3291
VBuchan%2C+John%2C
p3292
VWitch+wood
p3293
g5
g6
(lp3294
tp3295
a(I538
V1927
p3296
Vchirandom | teamblack
p3297
VWoolf%2C+Virginia%2C
p3298
VTo+the+lighthouse
p3299
g5
g6
(lp3300
tp3301
a(I539
V1927
p3302
Vchirandom | teamblack
p3303
VHill%2C+Grace+Livingston%2C
p3304
VJob%27s+niece
p3305
g5
g6
(lp3306
tp3307
a(I540
V1927
p3308
Vteamred | chimyst
p3309
VKeeler%2C+Harry+Stephen%2C
p3310
VFind+the+clock
p3311
g257
g6
(lp3312
g257
atp3313
a(I541
V1927
p3314
Vchirandom | teamred | chimyst
p3315
VGlaspell%2C+Susan%2C
p3316
VA+jury+of+her+peers
p3317
g257
g6
(lp3318
g257
atp3319
a(I542
V1927
p3320
Vteamblack | pbgothic | lavin_magic
p3321
VLovecraft%2C+H.+P.
p3322
VThe+Case+of+Charles+Dexter+Ward
p3323
g25
Vlavin_magic
p3324
(lp3325
g25
atp3326
a(I543
V1928
p3327
Vteamblack | chimyst
p3328
VEsteven%2C+John%2C
p3329
VThe+door+of+death
p3330
g257
g6
(lp3331
g257
atp3332
a(I544
V1928
p3333
Vteamblack | chiscifi
p3334
VCox%2C+Erle%2C
p3335
VOut+of+the+silence
p3336
g33
g6
(lp3337
g33
atp3338
a(I545
V1928
p3339
Vteamblack | chiscifi
p3340
VBurroughs%2C+Edgar+Rice%2C
p3341
VThe+master+mind+of+Mars
p3342
g33
g6
(lp3343
g33
atp3344
a(I546
V1928
p3345
Vteamred | chimyst
p3346
VKeeler%2C+Harry+Stephen%2C
p3347
VSing+Sing+nights
p3348
g257
g6
(lp3349
g257
atp3350
a(I547
V1928
p3351
Vchirandom | teamred | det100
p3352
VKnox%2C+Ronald+Arbuthnott%2C
p3353
VThe+footsteps+at+the+lock
p3354
g658
g6
(lp3355
g658
atp3356
a(I548
V1928
p3357
Vteamred | chifantasy | chiscifi
p3358
VWright%2C+S.+Fowler%2C
p3359
VThe+island+of+Captain+Spa
p3360
g33
g6
(lp3361
g33
atp3362
a(I549
V1928
p3363
Vteamblack | chimyst | stew
p3364
VWells%2C+Carolyn%2C
p3365
VDeep-Lake+mystery
p3366
g257
g6
(lp3367
g257
atp3368
a(I550
V1929
p3369
Vteamred | chiscifi | stew
p3370
VBurroughs%2C+Edgar+Rice%2C
p3371
VThe+monster+men
p3372
g33
g6
(lp3373
g33
atp3374
a(I551
V1929
p3375
Vchirandom | teamblack
p3376
VLewis%2C+Sinclair%2C
p3377
VDodsworth
p3378
g5
g6
(lp3379
tp3380
a(I552
V1929
p3381
Vteamblack | chiscifi | stew
p3382
VKline%2C+Otis+Adelbert%2C
p3383
VThe+planet+of+peril
p3384
g33
g6
(lp3385
g33
atp3386
a(I553
V1929
p3387
Vhardboiled | det100 | teamblack | chimyst
p3388
VHammett%2C+Dashiell%2C
p3389
VRed+Harvest
p3390
g658
g6
(lp3391
g658
atp3392
a(I554
V1929
p3393
Vteamred | chimyst | cozy
p3394
VChristie%2C+Agatha%2C
p3395
VThe+Seven+dials+mystery
p3396
g257
g6
(lp3397
g257
atp3398
a(I555
V1929
p3399
Vteamblack | chimyst
p3400
VBerkeley%2C+Anthony%2C
p3401
VThe+poisoned+chocolates+c
p3402
g257
g6
(lp3403
g257
atp3404
a(I556
V1929
p3405
Vteamred | chiscifi | stew
p3406
VBurroughs%2C+Edgar+Rice%2C
p3407
VTanar+of+Pellucidar
p3408
g33
g6
(lp3409
g33
atp3410
a(I557
V1929
p3411
Vteamred | chimyst
p3412
VBurnett%2C+W.+R.
p3413
VLittle+Caesar
p3414
g257
g6
(lp3415
g257
atp3416
a(I558
V1929
p3417
Vchirandom | teamblack | chimyst | stew
p3418
VWallace%2C+Edgar%2C
p3419
VThe+lone+house+mystery
p3420
g257
g6
(lp3421
g257
atp3422
a(I559
V1930
p3423
Vteamblack | chimyst
p3424
VBerkeley%2C+Anthony%2C
p3425
VThe+Piccadilly+murder
p3426
g257
g6
(lp3427
g257
atp3428
a(I560
V1930
p3429
Vchirandom | teamblack
p3430
VManning%2C+Frederic%2C
p3431
VHer+privates%3A+we
p3432
g5
g6
(lp3433
tp3434
a(I561
V1930
p3435
Vteamblack | chimyst | cozy
p3436
VSayers%2C+Dorothy+L.
p3437
VStrong+poison
p3438
g257
g6
(lp3439
g257
atp3440
a(I562
V1930
p3441
Vchifantasy | teamblack
p3442
VWilliams%2C+Charles%2C
p3443
VWar+in+heaven
p3444
g5
g6
(lp3445
tp3446
a(I563
V1930
p3447
Vchirandom | teamblack
p3448
VStratemeyer%2C+Edward%2C
p3449
VWith+Taylor+on+the+Rio+Gr
p3450
g5
g6
(lp3451
tp3452
a(I564
V1930
p3453
Vteamred | chifantasy | chiscifi
p3454
VBurroughs%2C+Edgar+Rice%2C
p3455
VTarzan+at+the+earth%27s+cor
p3456
g33
g6
(lp3457
g33
atp3458
a(I565
V1930
p3459
Vteamred | chiscifi | stew
p3460
VKline%2C+Otis+Adelbert%2C
p3461
VMaza+of+the+moon
p3462
g33
g6
(lp3463
g33
atp3464
a(I566
V1930
p3465
Vteamred | chiscifi | stew
p3466
VStapledon%2C+Olaf%2C
p3467
VLast+and+first+men
p3468
g33
g6
(lp3469
g33
atp3470
a(I567
V1930
p3471
Vteamred | chimyst | stew
p3472
VOppenheim%2C+E.+Phillips%2C
p3473
VThe+million+pound+deposit
p3474
g257
g6
(lp3475
g257
atp3476
a(I568
V1930
p3477
Vhardboiled | det100 | teamblack | chimyst
p3478
VHammett%2C+Dashiell%2C
p3479
VThe+Maltese+falcon
p3480
g658
g6
(lp3481
g658
atp3482
a(I569
V1930
p3483
Vteamblack | chiscifi
p3484
VKline%2C+Otis+Adelbert%2C
p3485
VThe+prince+of+peril
p3486
g33
g6
(lp3487
g33
atp3488
a(I570
V1931
p3489
Vchirandom | teamblack
p3490
VWilliams%2C+Charles%2C
p3491
VMany+dimensions
p3492
g5
g6
(lp3493
tp3494
a(I571
V1931
p3495
Vchifantasy | teamblack | chiscifi
p3496
VSmith%2C+Thorne%2C
p3497
VThe+night+life+of+the+god
p3498
g33
g6
(lp3499
g33
atp3500
a(I572
V1931
p3501
Vteamblack | chiscifi
p3502
VSchuyler%2C+George+S.
p3503
VBlack+no+more
p3504
g33
g6
(lp3505
g33
atp3506
a(I573
V1931
p3507
Vdet100 | teamblack
p3508
VTaylor%2C+Phoebe+Atwood
p3509
VThe+Cape+Cod+mystery
p3510
g658
g6
(lp3511
g658
atp3512
a(I574
V1931
p3513
Vteamred | det100 | chimyst
p3514
VQueen%2C+Ellery%2C
p3515
VThe+Dutch+shoe+mystery
p3516
g658
g6
(lp3517
g658
atp3518
a(I575
V1931
p3519
Vchirandom | teamred
p3520
VHill%2C+Grace+Livingston%2C
p3521
VThe+chance+of+a+lifetime
p3522
g5
g6
(lp3523
tp3524
a(I576
V1931
p3525
Vchifantasy | teamblack | chiscifi
p3526
VMerritt%2C+Abraham%2C
p3527
VThe+face+in+the+abyss
p3528
g33
g6
(lp3529
g33
atp3530
a(I577
V1931
p3531
Vteamblack | chiscifi
p3532
VLeinster%2C+Murray%2C
p3533
VMurder+madness
p3534
g33
g6
(lp3535
g33
atp3536
a(I578
V1931
p3537
Vteamred | chiscifi
p3538
VMerritt%2C+Abraham%2C
p3539
VFace+in+the+abyss
p3540
g33
g6
(lp3541
g33
atp3542
a(I579
V1931
p3543
Vchirandom | teamblack | chimyst
p3544
VConnington%2C+J.+J.
p3545
VThe+boathouse+riddle
p3546
g257
g6
(lp3547
g257
atp3548
a(I580
V1931
p3549
Vteamblack | chiscifi
p3550
VCummings%2C+Ray%2C
p3551
VBrigands+of+the+moon
p3552
g33
g6
(lp3553
g33
atp3554
a(I581
V1931
p3555
Vteamblack | chimyst | stew
p3556
VRohmer%2C+Sax%2C
p3557
VDaughter+of+Fu+Manchu
p3558
g257
g6
(lp3559
g257
atp3560
a(I582
V1931
p3561
Vchirandom | teamblack
p3562
VArmstrong%2C+Martin%2C
p3563
VThe+romantic+adventures+o
p3564
g5
g6
(lp3565
tp3566
a(I583
V1932
p3567
Vteamblack | chimyst | stew
p3568
VSnow%2C+C.+P.
p3569
VDeath+under+sail
p3570
g257
g6
(lp3571
g257
atp3572
a(I584
V1932
p3573
Vteamred | chiscifi
p3574
VStapledon%2C+Olaf%2C
p3575
VLast+men+in+London
p3576
g33
g6
(lp3577
g33
atp3578
a(I585
V1932
p3579
Vchirandom | teamred
p3580
VShute%2C+Nevil%2C
p3581
VLonely+road
p3582
g5
g6
(lp3583
tp3584
a(I586
V1932
p3585
Vchirandom | teamred
p3586
VEvans%2C+Margiad%2C
p3587
VCountry+dance
p3588
g5
g6
(lp3589
tp3590
a(I587
V1932
p3591
Vchifantasy | teamblack
p3592
VBramah%2C+Ernest%2C
p3593
VThe+moon+of+much+gladness
p3594
g5
g6
(lp3595
tp3596
a(I588
V1932
p3597
Vchiutopia | teamblack | chiscifi
p3598
VHuxley%2C+Aldous%2C
p3599
VBrave+new+world
p3600
g33
g6
(lp3601
g33
atp3602
a(I589
V1932
p3603
Vchirandom | teamred
p3604
VMorgan%2C+Charles%2C
p3605
VThe+fountain
p3606
g5
g6
(lp3607
tp3608
a(I590
V1932
p3609
Vchirandom | teamred
p3610
VDos+Passos%2C+John%2C
p3611
V1919
p3612
g5
g6
(lp3613
tp3614
a(I591
V1932
p3615
Vteamblack | pbgothic
p3616
VFaulkner%2C+William
p3617
VLight+in+August
p3618
g25
g6
(lp3619
g25
atp3620
a(I592
V1933
p3621
Vchirandom | teamred | chimyst
p3622
VWhite%2C+Ethel+Lina%2C
p3623
VPut+out+the+light
p3624
g257
g6
(lp3625
g257
atp3626
a(I593
V1933
p3627
Vchiutopia | chifantasy | teamblack
p3628
VHilton%2C+James%2C
p3629
VLost+horizon
p3630
g33
g6
(lp3631
g33
atp3632
a(I594
V1933
p3633
Vchiutopia | teamblack
p3634
VHerrick%2C+Robert%2C
p3635
VSometime
p3636
g33
g6
(lp3637
g33
atp3638
a(I595
V1933
p3639
Vteamred | chimyst
p3640
VOppenheim%2C+E.+Phillips%2C
p3641
VMurder+at+Monte+Carlo
p3642
g257
g6
(lp3643
g257
atp3644
a(I596
V1933
p3645
Vchifantasy | teamblack | chihorror | stew
p3646
VEndore%2C+S.+Guy%2C
p3647
VThe+werewolf+of+Paris
p3648
g475
g6
(lp3649
g475
atp3650
a(I597
V1933
p3651
Vchirandom | teamred | chimyst
p3652
VFranklin%2C+Miles%2C
p3653
VBring+the+monkey
p3654
g257
g6
(lp3655
g257
atp3656
a(I598
V1934
p3657
Vchirandom | teamred | chimyst
p3658
VDickson%2C+Carter%2C
p3659
VThe+Plague+court+murders
p3660
g257
g6
(lp3661
g257
atp3662
a(I599
V1934
p3663
Vchirandom | teamred
p3664
VLinklater%2C+Eric%2C
p3665
VMagnus+Merriman
p3666
g5
g6
(lp3667
tp3668
a(I600
V1934
p3669
Vteamblack | chimyst
p3670
VTeilhet%2C+Darwin+L.
p3671
VThe+talking+sparrow+murde
p3672
g257
g6
(lp3673
g257
atp3674
a(I601
V1934
p3675
Vteamblack | pbgothic | stew
p3676
VDinesen%2C+Isak%2C
p3677
VSeven+Gothic+Tales
p3678
g25
g6
(lp3679
g25
atp3680
a(I602
V1935
p3681
Vchirandom | teamblack
p3682
VMontgomery%2C+L.+M.
p3683
VMistress+Pat
p3684
g5
g6
(lp3685
tp3686
a(I603
V1935
p3687
Vchirandom | teamred
p3688
VMcKinney%2C+J.+P%2C
p3689
VCrucible
p3690
g5
g6
(lp3691
tp3692
a(I604
V1935
p3693
Vchirandom | teamblack | chimyst | cozy
p3694
VMarsh%2C+Ngaio%2C
p3695
VThe+nursing+home+murder
p3696
g257
g6
(lp3697
g257
atp3698
a(I605
V1935
p3699
Vchirandom | teamblack
p3700
VHeyer%2C+Georgette%2C
p3701
VRegency+buck
p3702
g5
g6
(lp3703
tp3704
a(I606
V1935
p3705
Vteamred | chiscifi
p3706
VLewis%2C+Sinclair%2C
p3707
VIt+can%27t+happen+here
p3708
g33
g6
(lp3709
g33
atp3710
a(I607
V1935
p3711
Vchifantasy | teamblack
p3712
VBurroughs%2C+Edgar+Rice%2C
p3713
VTarzan+and+the+leopard+me
p3714
g5
g6
(lp3715
tp3716
a(I608
V1936
p3717
Vchirandom | teamred | chimyst | stew
p3718
VInnes%2C+Michael%2C
p3719
VDeath+at+the+president%27s+
p3720
g257
g6
(lp3721
g257
atp3722
a(I609
V1936
p3723
Vchirandom | teamred
p3724
VGellhorn%2C+Martha%2C
p3725
VThe+trouble+I%27ve+seen
p3726
g5
g6
(lp3727
tp3728
a(I610
V1936
p3729
Vteamblack | chimyst
p3730
VLatimer%2C+Jonathan%2C
p3731
VMurder+in+the+madhouse
p3732
g257
g6
(lp3733
g257
atp3734
a(I611
V1937
p3735
Vchirandom | teamblack
p3736
VBristow%2C+Gwen%2C
p3737
VDeep+summer
p3738
g5
g6
(lp3739
tp3740
a(I612
V1937
p3741
Vteamred | chiscifi
p3742
VWells%2C+H.+G.
p3743
VStar-begotten
p3744
g33
g6
(lp3745
g33
atp3746
a(I613
V1937
p3747
Vteamred | det100 | stew
p3748
VRhode%2C+John
p3749
VThe+harvest+murder
p3750
g658
g6
(lp3751
g658
atp3752
a(I614
V1937
p3753
Vchirandom | teamred
p3754
VSteinbeck%2C+John%2C
p3755
VOf+mice+and+men
p3756
g5
g6
(lp3757
tp3758
a(I615
V1937
p3759
Vchirandom | teamblack | chiscifi
p3760
VPseudoman%2C+Akkad%2C
p3761
VZero+to+eighty
p3762
g33
g6
(lp3763
g33
atp3764
a(I616
V1937
p3765
Vchirandom | teamred | chimyst | cozy
p3766
VAllingham%2C+Margery%2C
p3767
VDancers+in+mourning
p3768
g257
g6
(lp3769
g257
atp3770
a(I617
V1937
p3771
Vchirandom | teamred
p3772
VLinklater%2C+Eric%2C
p3773
VJuan+in+China
p3774
g5
g6
(lp3775
tp3776
a(I618
V1938
p3777
Vchiutopia | teamblack
p3778
VSarton%2C+May%2C
p3779
VThe+single+hound
p3780
g33
g6
(lp3781
g33
atp3782
a(I619
V1938
p3783
Vchirandom | chiutopia | teamblack | chiscifi | stew
p3784
VWright%2C+S.+Fowler%2C
p3785
VThe+adventure+of+Wyndham+
p3786
g33
g6
(lp3787
g33
atp3788
a(I620
V1938
p3789
Vchirandom | teamred
p3790
VHyde%2C+Robin%2C
p3791
VThe+godwits+fly
p3792
g5
g6
(lp3793
tp3794
a(I621
V1938
p3795
Vteamred | pbgothic | stew
p3796
VDu+Maurier%2C+Daphne%2C
p3797
VRebecca
p3798
g25
g6
(lp3799
g25
atp3800
a(I622
V1938
p3801
Vteamblack | chimyst | stew
p3802
VConnington%2C+J.+J.
p3803
VMurder+will+speak
p3804
g257
g6
(lp3805
g257
atp3806
a(I623
V1938
p3807
Vteamred | chiscifi
p3808
VPriestley%2C+J.+B.
p3809
VThe+doomsday+men
p3810
g33
g6
(lp3811
g33
atp3812
a(I624
V1938
p3813
Vdet100 | teamblack
p3814
VCarr%2C+John+Dickson
p3815
VTo+wake+the+dead
p3816
g658
g6
(lp3817
g658
atp3818
a(I625
V1938
p3819
Vteamred | chiscifi
p3820
VBurroughs%2C+Edgar+Rice%2C
p3821
VThe+lad+and+the+lion
p3822
g33
g6
(lp3823
g33
atp3824
a(I626
V1939
p3825
Vteamred | chimyst
p3826
VFreeman%2C+R.+Austin%2C
p3827
VThe+stoneware+monkey
p3828
g257
g6
(lp3829
g257
atp3830
a(I627
V1939
p3831
Vteamblack | chimyst
p3832
VBerkeley%2C+Anthony%2C
p3833
VDeath+in+the+house
p3834
g257
g6
(lp3835
g257
atp3836
a(I628
V1939
p3837
Vchirandom | teamred
p3838
VAllan%2C+Ted%2C
p3839
VThis+time+a+better+earth
p3840
g5
g6
(lp3841
tp3842
a(I629
V1939
p3843
Vteamred | det100 | chimyst
p3844
VStout%2C+Rex%2C
p3845
VMountain+cat+Murders
p3846
g658
g6
(lp3847
g658
atp3848
a(I630
V1939
p3849
Vhardboiled | det100 | teamblack | chimyst
p3850
VChandler%2C+Raymond%2C
p3851
VThe+big+sleep
p3852
g658
g6
(lp3853
g658
atp3854
a(I631
V1940
p3855
Vdet100 | teamblack | hardboiled | stew
p3856
VChandler%2C+Raymond%2C
p3857
VFarewell+My+Lovely
p3858
g658
g6
(lp3859
g658
atp3860
a(I632
V1940
p3861
Vteamred | chimyst | stew
p3862
VReilly%2C+Helen%2C
p3863
VThe+dead+can+tell
p3864
g257
g6
(lp3865
g257
atp3866
a(I633
V1940
p3867
Vteamred | chimyst | stew
p3868
VRawson%2C+Clayton%2C
p3869
VThe+headless+lady
p3870
g257
g6
(lp3871
g257
atp3872
a(I634
V1940
p3873
Vchirandom | teamblack
p3874
VShute%2C+Nevil%2C
p3875
VLandfall
p3876
g5
g6
(lp3877
tp3878
a(I635
V1940
p3879
Vchirandom | teamred
p3880
VAtkinson%2C+Eleanor%2C
p3881
VGreyfriars+Bobby
p3882
g5
g6
(lp3883
tp3884
a(I636
V1941
p3885
Vchirandom | teamblack | chimyst
p3886
VChristie%2C+Agatha%2C
p3887
VN+or+M%3F
p3888
g257
g6
(lp3889
g257
atp3890
a(I637
V1941
p3891
Vteamred | chiscifi | stew
p3892
VMerritt%2C+Abraham%2C
p3893
VThe+metal+monster
p3894
g33
g6
(lp3895
g33
atp3896
a(I638
V1941
p3897
Vchirandom | teamred
p3898
VHeyer%2C+Georgette%2C
p3899
VFaro%27s+daughter
p3900
g5
g6
(lp3901
tp3902
a(I639
V1942
p3903
Vchirandom | chifantasy | teamblack
p3904
VLewis%2C+C.+S.
p3905
VThe+Screwtape+letters
p3906
g5
g6
(lp3907
tp3908
a(I640
V1942
p3909
Vchirandom | teamblack
p3910
VKnight%2C+Eric%2C
p3911
VSam+Small+flies+again+%28Th
p3912
g5
g6
(lp3913
tp3914
a(I641
V1942
p3915
Vteamred | chimyst | chiscifi | stew
p3916
VMerritt%2C+Abraham%2C
p3917
VBurn%3A+witch%3A+burn%21
p3918
g494
g6
(lp3919
g33
ag257
atp3920
a(I642
V1942
p3921
Vchirandom | teamred | chimyst
p3922
VRinehart%2C+Mary+Roberts%2C
p3923
VThe+door
p3924
g257
g6
(lp3925
g257
atp3926
a(I643
V1942
p3927
Vdet100 | teamblack | cozy
p3928
VEberhart%2C+Mignon+Good
p3929
VWolf+in+man%27s+clothing
p3930
g658
g6
(lp3931
g658
atp3932
a(I644
V1942
p3933
Vteamred | det100 | chimyst
p3934
VGardner%2C+Erle+Stanley%2C
p3935
VThe+case+of+the+empty+tin
p3936
g658
g6
(lp3937
g658
atp3938
a(I645
V1942
p3939
Vdet100 | teamblack | chimyst
p3940
VRice%2C+Craig%2C
p3941
VThe+big+midget+murders
p3942
g658
g6
(lp3943
g658
atp3944
a(I646
V1942
p3945
Vchirandom | teamblack | chimyst | cozy
p3946
VMarsh%2C+Ngaio%2C
p3947
VA+man+lay+dead
p3948
g257
g6
(lp3949
g257
atp3950
a(I647
V1942
p3951
Vchirandom | teamblack | chimyst | stew
p3952
VChristie%2C+Agatha%2C
p3953
VFive+little+pigs
p3954
g257
g6
(lp3955
g257
atp3956
a(I648
V1942
p3957
Vteamred | chiscifi
p3958
VStapledon%2C+Olaf%2C
p3959
VDarkness+and+the+light
p3960
g33
g6
(lp3961
g33
atp3962
a(I649
V1943
p3963
Vchirandom | teamred | chimyst
p3964
VMarsh%2C+Ngaio%2C
p3965
VColour+scheme
p3966
g257
g6
(lp3967
g257
atp3968
a(I650
V1943
p3969
Vchirandom | teamred | chimyst
p3970
VWentworth%2C+Patricia%2C
p3971
VMiss+Silver+deals+with+de
p3972
g257
g6
(lp3973
g257
atp3974
a(I651
V1943
p3975
Vchirandom | teamblack
p3976
VGreen%2C+Henry%2C
p3977
VCaught
p3978
g5
g6
(lp3979
tp3980
a(I652
V1943
p3981
Vhardboiled | chimyst | teamred
p3982
VCain%2C+James+M.
p3983
VDouble+indemnity
p3984
g658
g6
(lp3985
g658
atp3986
a(I653
V1943
p3987
Vteamred | det100 | chimyst | cozy | stew
p3988
VQueen%2C+Ellery%2C
p3989
VThere+was+an+old+woman
p3990
g658
g6
(lp3991
g658
atp3992
a(I654
V1944
p3993
Vteamred | chifantasy | chiscifi
p3994
VBurroughs%2C+Edgar+Rice%2C
p3995
VLand+of+terror
p3996
g33
g6
(lp3997
g33
atp3998
a(I655
V1944
p3999
Vchirandom | teamred | chimyst
p4000
VBrackett%2C+Leigh%2C
p4001
VNo+good+from+a+corpse
p4002
g257
g6
(lp4003
g257
atp4004
a(I656
V1944
p4005
Vchifantasy | teamblack | chimyst
p4006
VHughes%2C+Dorothy+B.
p4007
VThe+delicate+ape
p4008
g257
g6
(lp4009
g257
atp4010
a(I657
V1944
p4011
Vchirandom | teamred
p4012
VJoyce%2C+James%2C
p4013
VStephen+hero
p4014
g5
g6
(lp4015
tp4016
a(I658
V1944
p4017
Vchirandom | teamred
p4018
VWalker%2C+Mildred
p4019
VWinter+wheat
p4020
g5
g6
(lp4021
tp4022
a(I659
V1945
p4023
Vchifantasy | teamblack | chiscifi
p4024
VLewis%2C+C.+S.
p4025
VThat+hideous+strength
p4026
g33
g6
(lp4027
g33
atp4028
a(I660
V1945
p4029
Vhardboiled | teamblack | chimyst
p4030
VHughes%2C+Dorothy+B.+1904-+
p4031
VDread+journey
p4032
g658
g6
(lp4033
g658
atp4034
a(I661
V1945
p4035
Vteamred | chimyst
p4036
VHalliday%2C+Brett%2C
p4037
VMurder+is+my+business
p4038
g257
g6
(lp4039
g257
atp4040
a(I662
V1945
p4041
Vchiutopia | teamblack
p4042
VOrwell%2C+George%2C
p4043
VAnimal+farm
p4044
g33
g6
(lp4045
g33
atp4046
a(I663
V1945
p4047
Vchirandom | teamred
p4048
VStein%2C+Gertrude%2C
p4049
VWars+I+have+seen
p4050
g5
g6
(lp4051
tp4052
a(I664
V1945
p4053
Vteamred | chimyst
p4054
VArmstrong%2C+Charlotte%2C
p4055
VThe+innocent+flower
p4056
g257
g6
(lp4057
g257
atp4058
a(I665
V1946
p4059
Vchirandom | teamblack
p4060
VKoestler%2C+Arthur%2C
p4061
VThieves+in+the+night
p4062
g5
g6
(lp4063
tp4064
a(I666
V1946
p4065
Vchirandom | teamblack
p4066
VForester%2C+C.+S.
p4067
VLord+Hornblower
p4068
g5
g6
(lp4069
tp4070
a(I667
V1946
p4071
Vteamred | chiscifi | stew
p4072
VTaine%2C+John%2C
p4073
VThe+time+stream
p4074
g33
g6
(lp4075
g33
atp4076
a(I668
V1946
p4077
Vteamblack | chiscifi | stew
p4078
VSherman%2C+Harold+M.
p4079
VThe+green+man
p4080
g33
g6
(lp4081
g33
atp4082
a(I669
V1946
p4083
Vteamred | det100 | chimyst
p4084
VStout%2C+Rex%2C
p4085
VThe+silent+speaker
p4086
g658
g6
(lp4087
g658
atp4088
a(I670
V1946
p4089
Vteamred | chiscifi
p4090
VRand%2C+Ayn%2C
p4091
VAnthem
p4092
g33
g6
(lp4093
g33
atp4094
a(I671
V1946
p4095
Vchirandom | teamblack
p4096
VWelty%2C+Eudora%2C
p4097
VDelta+Wedding
p4098
g5
g6
(lp4099
tp4100
a(I672
V1946
p4101
Vteamred | chiscifi
p4102
VWellman%2C+Manly+Wade%2C
p4103
VThe+solar+invasion
p4104
g33
g6
(lp4105
g33
atp4106
a(I673
V1946
p4107
Vteamblack | chiscifi | stew
p4108
VVan+Vogt%2C+A.+E.+1912-++%28A
p4109
VSlan
p4110
g33
g6
(lp4111
g33
atp4112
a(I674
V1946
p4113
Vchirandom | teamblack
p4114
VBusch%2C+Niven%2C
p4115
VDay+of+the+conquerors
p4116
g5
g6
(lp4117
tp4118
a(I675
V1946
p4119
Vteamblack | chiscifi
p4120
VCummings%2C+Ray%2C
p4121
VThe+shadow+girl
p4122
g33
g6
(lp4123
g33
atp4124
a(I676
V1946
p4125
Vteamblack | pbgothic | stew
p4126
VPeake%2C+Mervyn%2C
p4127
VTitus+Groan
p4128
g25
g6
(lp4129
g25
atp4130
a(I677
V1946
p4131
Vteamred | det100 | chimyst
p4132
VFair%2C+A.+A.
p4133
VCrows+can%27t+count
p4134
g658
g6
(lp4135
g658
atp4136
a(I678
V1947
p4137
Vchirandom | teamred | chiscifi
p4138
VHeinlein%2C+Robert+A.
p4139
VRocket+ship+Galileo
p4140
g33
g6
(lp4141
g33
atp4142
a(I679
V1947
p4143
Vchirandom | teamblack
p4144
VHartley%2C+L.+P.
p4145
VEustace+and+Hilda
p4146
g5
g6
(lp4147
tp4148
a(I680
V1947
p4149
Vchirandom | teamblack
p4150
VBlunden%2C+Godfrey
p4151
VA+Room+on+the+Route
p4152
g5
g6
(lp4153
tp4154
a(I681
V1947
p4155
Vchirandom | teamred
p4156
VRobins%2C+Denise%2C
p4157
VMore+than+love
p4158
g5
g6
(lp4159
tp4160
a(I682
V1947
p4161
Vchirandom | teamred
p4162
VMyers%2C+John+Myers%2C
p4163
VThe+wild+Yazoo
p4164
g5
g6
(lp4165
tp4166
a(I683
V1947
p4167
Vteamred | chifantasy
p4168
VVan+Vogt%2C+A.+E.+1912-2000
p4169
VThe+book+of+Ptath
p4170
g5
g6
(lp4171
tp4172
a(I684
V1947
p4173
Vteamred | chiscifi
p4174
VTaine%2C+John%2C
p4175
VThe+forbidden+garden
p4176
g33
g6
(lp4177
g33
atp4178
a(I685
V1948
p4179
Vchirandom | det100 | teamblack | chimyst | cozy | stew
p4180
VQueen%2C+Ellery%2C
p4181
VTen+days%27+wonder
p4182
g658
g6
(lp4183
g658
atp4184
a(I686
V1948
p4185
Vchirandom | chiutopia | teamblack
p4186
VSkinner%2C+B.+F.
p4187
VWalden+Two
p4188
g33
g6
(lp4189
g33
atp4190
a(I687
V1948
p4191
Vchirandom | teamred
p4192
VWilder%2C+Thornton%2C
p4193
VThe+ides+of+March
p4194
g5
g6
(lp4195
tp4196
a(I688
V1948
p4197
Vchifantasy | teamblack | chihorror | chiscifi
p4198
VWilliamson%2C+Jack%2C
p4199
VDarker+than+you+think
p4200
g494
g6
(lp4201
g475
ag33
atp4202
a(I689
V1948
p4203
Vteamred | chimyst
p4204
VBrown%2C+Fredric%2C
p4205
VThe+dead+ringer
p4206
g257
g6
(lp4207
g257
atp4208
a(I690
V1948
p4209
Vteamred | pbgothic | chiscifi | lavin_ghost | lavin_magic
p4210
VDerleth%2C+August%2C
p4211
VTwo+stories+by+Derleth
p4212
g494
g232
(lp4213
g25
ag33
atp4214
a(I691
V1948
p4215
Vteamred | chiscifi
p4216
VSmith%2C+E.+E.
p4217
VSkylark+three
p4218
g33
g6
(lp4219
g33
atp4220
a(I692
V1948
p4221
Vteamblack | chimyst
p4222
VMitchell%2C+Gladys%2C
p4223
VThe+Dancing+Druids
p4224
g257
g6
(lp4225
g257
atp4226
a(I693
V1949
p4227
Vchirandom | teamred | chimyst
p4228
VChristie%2C+Agatha%2C
p4229
VCrooked+house
p4230
g257
g6
(lp4231
g257
atp4232
a(I694
V1949
p4233
Vchirandom | teamred | chimyst
p4234
VFerrars%2C+E.+X%2C
p4235
VThe+March+Hare+murders
p4236
g257
g6
(lp4237
g257
atp4238
a(I695
V1949
p4239
Vteamblack | chiscifi
p4240
VOrwell%2C+George%2C
p4241
VNineteen+eighty-four
p4242
g33
g6
(lp4243
g33
atp4244
a(I696
V1949
p4245
Vchirandom | teamblack | chimyst
p4246
VPalmer%2C+Stuart%2C
p4247
VFour+lost+ladies
p4248
g257
g6
(lp4249
g257
atp4250
a(I697
V1949
p4251
Vteamred | chifantasy
p4252
VMyers%2C+John+Myers%2C
p4253
VSilverlock
p4254
g5
g6
(lp4255
tp4256
a(I698
V1949
p4257
Vteamblack | chiscifi
p4258
VZagat%2C+Arthur+Leo%2C
p4259
VSeven+out+of+time
p4260
g33
g6
(lp4261
g33
atp4262
a(I699
V1949
p4263
Vteamred | det100 | chimyst
p4264
VStout%2C+Rex%2C
p4265
VThe+second+confession
p4266
g658
g6
(lp4267
g658
atp4268
a(I700
V1949
p4269
Vteamred | chiscifi
p4270
VWright%2C+S.+Fowler%2C
p4271
VThe+Amphibians
p4272
g33
g6
(lp4273
g33
atp4274
a(I701
V1949
p4275
Vchirandom | teamred
p4276
VWentworth%2C+Patricia%2C
p4277
VThe+Catherine-wheel
p4278
g5
g6
(lp4279
tp4280
a(I702
V1950
p4281
Vchifantasy | teamblack
p4282
VHoward%2C+Robert+E.
p4283
VConan+the+conqueror
p4284
g5
g6
(lp4285
tp4286
a(I703
V1950
p4287
Vteamred | chimyst
p4288
VSymons%2C+Julian%2C
p4289
VThe+31st+of+February
p4290
g257
g6
(lp4291
g257
atp4292
a(I704
V1950
p4293
Vteamred | chifantasy
p4294
VPragnell%2C+Festus%2C
p4295
VThe+green+man+of+Graypec
p4296
g5
g6
(lp4297
tp4298
a(I705
V1950
p4299
Vteamred | chiscifi
p4300
VStapledon%2C+Olaf%2C
p4301
VA+man+divided
p4302
g33
g6
(lp4303
g33
atp4304
a(I706
V1950
p4305
Vchirandom | teamblack | chimyst
p4306
VWentworth%2C+Patricia%2C
p4307
VThrough+the+wall
p4308
g257
g6
(lp4309
g257
atp4310
a(I707
V1950
p4311
Vteamred | chifantasy | chiscifi | stew
p4312
VPhillips%2C+Rog%2C
p4313
VWorlds+within
p4314
g33
g6
(lp4315
g33
atp4316
a(I708
V1950
p4317
Vchirandom | teamblack
p4318
VSeton%2C+Anya%2C
p4319
VFoxfire
p4320
g5
g6
(lp4321
tp4322
a(I709
V1950
p4323
Vchirandom | teamred | chimyst | stew
p4324
VLessing%2C+Doris%2C
p4325
VThe+grass+is+singing
p4326
g257
g6
(lp4327
g257
atp4328
a(I710
V1950
p4329
Vchifantasy | teamblack
p4330
VLewis%2C+C.+S.
p4331
VThe+lion%3A+the+witch+and+t
p4332
g5
g6
(lp4333
tp4334
a(I711
V1950
p4335
Vteamblack | chimyst
p4336
VCrispin%2C+Edmund%2C
p4337
VFrequent+hearses
p4338
g257
g6
(lp4339
g257
atp4340
a(I712
V1950
p4341
Vchifantasy | teamblack
p4342
VBentley%2C+E.+C.
p4343
VElephant%27s+work
p4344
g5
g6
(lp4345
tp4346
a(I713
V1950
p4347
Vchirandom | teamred
p4348
VCastor%2C+Henry%2C
p4349
VThe+year+of+the+Spaniard
p4350
g5
g6
(lp4351
tp4352
a(I714
V1950
p4353
Vteamblack | chiscifi | stew
p4354
VAsimov%2C+Isaac%2C
p4355
VI%3A+robot
p4356
g33
g6
(lp4357
g33
atp4358
a(I715
V1950
p4359
Vchirandom | teamblack
p4360
VFast%2C+Howard%2C
p4361
VThe+proud+and+the+free
p4362
g5
g6
(lp4363
tp4364
a(I716
V1950
p4365
Vteamred | chimyst
p4366
VCoxe%2C+George+Harmon%2C
p4367
VThe+frightened+fiance
p4368
g257
g6
(lp4369
g257
atp4370
a(I717
V1950
p4371
Vchirandom | teamblack | chiscifi
p4372
VVan+Vogt%2C+A.+E.+1912-2000
p4373
VThe+house+that+stood+stil
p4374
g33
g6
(lp4375
g33
atp4376
a(I718
V1951
p4377
Vteamred | chiscifi | stew
p4378
VWylie%2C+Philip%2C
p4379
VThe+disappearance
p4380
g33
g6
(lp4381
g33
atp4382
a(I719
V1951
p4383
Vhardboiled | chimyst | teamred
p4384
VSpillane%2C+Mickey%2C
p4385
VThe+big+kill
p4386
g658
g6
(lp4387
g658
atp4388
a(I720
V1951
p4389
Vteamblack | chimyst
p4390
VDavis%2C+Dorothy+Salisbury%2C
p4391
VA+gentle+murderer
p4392
g257
g6
(lp4393
g257
atp4394
a(I721
V1951
p4395
Vteamred | chiscifi
p4396
VAsimov%2C+Isaac%2C
p4397
VFoundation
p4398
g33
g6
(lp4399
g33
atp4400
a(I722
V1951
p4401
Vchirandom | teamred | chiscifi
p4402
VMerwin%2C+Sam%2C
p4403
VThe+house+of+many+worlds
p4404
g33
g6
(lp4405
g33
atp4406
a(I723
V1951
p4407
Vteamblack | chiscifi | stew
p4408
VMacDonald%2C+John+D.
p4409
VWine+of+the+dreamers
p4410
g33
g6
(lp4411
g33
atp4412
a(I724
V1952
p4413
Vteamred | chimyst | cozy
p4414
VAllingham%2C+Margery%2C
p4415
VThe+tiger+in+the+smoke
p4416
g257
g6
(lp4417
g257
atp4418
a(I725
V1952
p4419
Vchirandom | teamblack | chiscifi | stew
p4420
VAsimov%2C+Isaac%2C
p4421
VFoundation+and+empire
p4422
g33
g6
(lp4423
g33
atp4424
a(I726
V1952
p4425
Vteamred | chimyst | stew
p4426
VBrown%2C+Fredric%2C
p4427
VDeep+end
p4428
g257
g6
(lp4429
g257
atp4430
a(I727
V1952
p4431
Vteamblack | chiscifi
p4432
VJones%2C+Raymond+F.
p4433
VSon+of+the+stars
p4434
g33
g6
(lp4435
g33
atp4436
a(I728
V1952
p4437
Vchirandom | hardboiled | teamblack | chimyst | stew
p4438
VSpillane%2C+Mickey%2C
p4439
VKiss+me%3A+deadly
p4440
g658
g6
(lp4441
g658
atp4442
a(I729
V1952
p4443
Vchirandom | teamblack | chiscifi | stew
p4444
VVonnegut%2C+Kurt%2C
p4445
VPlayer+piano
p4446
g33
g6
(lp4447
g33
atp4448
a(I730
V1952
p4449
Vchirandom | teamblack | chimyst
p4450
VPowell%2C+Richard%2C
p4451
VA+shot+in+the+dark
p4452
g257
g6
(lp4453
g257
atp4454
a(I731
V1952
p4455
Vchirandom | teamblack
p4456
VMalamud%2C+Bernard
p4457
VThe+natural
p4458
g5
g6
(lp4459
tp4460
a(I732
V1953
p4461
Vteamred | chiscifi
p4462
VLowndes%2C+Robert+W%2C
p4463
VMystery+of+the+third+mine
p4464
g33
g6
(lp4465
g33
atp4466
a(I733
V1953
p4467
Vchirandom | teamblack | chiscifi | stew
p4468
VPangborn%2C+Edgar%2C
p4469
VWest+of+the+sun
p4470
g33
g6
(lp4471
g33
atp4472
a(I734
V1953
p4473
Vchirandom | teamred | chiscifi | stew
p4474
VAsimov%2C+Isaac%2C
p4475
VSecond+foundation
p4476
g33
g6
(lp4477
g33
atp4478
a(I735
V1953
p4479
Vchirandom | teamred | chiscifi | stew
p4480
VBrown%2C+Fredric%2C
p4481
VThe+lights+in+the+sky+are
p4482
g33
g6
(lp4483
g33
atp4484
a(I736
V1953
p4485
Vteamblack | chiscifi | stew
p4486
VBradbury%2C+Ray%2C
p4487
VFahrenheit+451
p4488
g33
g6
(lp4489
g33
atp4490
a(I737
V1953
p4491
Vchirandom | teamred
p4492
VGoudge%2C+Elizabeth%2C
p4493
VThe+heart+of+the+family
p4494
g5
g6
(lp4495
tp4496
a(I738
V1953
p4497
Vchirandom | teamred
p4498
VLasswell%2C+Mary%2C
p4499
VTooner+Schooner
p4500
g5
g6
(lp4501
tp4502
a(I739
V1954
p4503
Vchirandom | teamred
p4504
VFoote%2C+Shelby%2C
p4505
VJordan+County
p4506
g5
g6
(lp4507
tp4508
a(I740
V1954
p4509
Vteamblack | chiscifi | stew
p4510
VHeinlein%2C+Robert+A.
p4511
VThe+star+beast
p4512
g33
g6
(lp4513
g33
atp4514
a(I741
V1954
p4515
Vteamblack | chimyst
p4516
VReilly%2C+Helen%2C
p4517
VTell+her+it%27s+murder
p4518
g257
g6
(lp4519
g257
atp4520
a(I742
V1954
p4521
Vchirandom | teamblack
p4522
VRobbins%2C+Harold%2C
p4523
VNever+leave+me
p4524
g5
g6
(lp4525
tp4526
a(I743
V1954
p4527
Vteamblack | chiscifi
p4528
VDel+Rey%2C+Lester%2C
p4529
VStep+to+the+stars
p4530
g33
g6
(lp4531
g33
atp4532
a(I744
V1954
p4533
Vteamred | pbgothic | chihorror | chiscifi | lavin_magic
p4534
VMatheson%2C+Richard%2C
p4535
VI+am+legend
p4536
g494
Vlavin_magic
p4537
(lp4538
g25
ag33
atp4539
a(I745
V1954
p4540
Vchirandom | teamred
p4541
VManfred%2C+Frederick+Feikem
p4542
VLord+Grizzly
p4543
g5
g6
(lp4544
tp4545
a(I746
V1955
p4546
Vteamred | chimyst
p4547
VCrane%2C+Frances%2C
p4548
VDeath+in+lilac+time
p4549
g257
g6
(lp4550
g257
atp4551
a(I747
V1955
p4552
Vchirandom | teamred
p4553
VMcCarthy%2C+Mary
p4554
VA+charmed+life
p4555
g5
g6
(lp4556
tp4557
a(I748
V1955
p4558
Vteamred | chimyst
p4559
VStout%2C+Rex%2C
p4560
VBefore+midnight
p4561
g257
g6
(lp4562
g257
atp4563
a(I749
V1956
p4564
Vchirandom | teamblack
p4565
VMacDonald%2C+John+D.
p4566
VYou+live+once
p4567
g5
g6
(lp4568
tp4569
a(I750
V1956
p4570
Vteamblack | chiscifi
p4571
VDel+Rey%2C+Lester%2C
p4572
VMission+to+the+moon
p4573
g33
g6
(lp4574
g33
atp4575
a(I751
V1956
p4576
Vchirandom | teamred | chiscifi
p4577
VHeinlein%2C+Robert+A.
p4578
VDouble+star
p4579
g33
g6
(lp4580
g33
atp4581
a(I752
V1956
p4582
Vteamblack | chimyst
p4583
VCoxe%2C+George+Harmon%2C
p4584
VMan+on+a+rope
p4585
g257
g6
(lp4586
g257
atp4587
a(I753
V1956
p4588
Vteamblack | chimyst
p4589
VCrane%2C+Frances%2C
p4590
VHorror+on+the+Ruby+X
p4591
g257
g6
(lp4592
g257
atp4593
a(I754
V1957
p4594
Vteamblack | chiscifi
p4595
VHoyle%2C+Fred%2C
p4596
VThe+black+cloud
p4597
g33
g6
(lp4598
g33
atp4599
a(I755
V1957
p4600
Vchirandom | teamblack
p4601
VMalvern%2C+Gladys%2C
p4602
VMy+lady%3A+my+love
p4603
g5
g6
(lp4604
tp4605
a(I756
V1957
p4606
Vteamred | chiscifi
p4607
VMoore%2C+C.+L.
p4608
VDoomsday+morning
p4609
g33
g6
(lp4610
g33
atp4611
a(I757
V1957
p4612
Vchirandom | teamblack | chiscifi
p4613
VDick%2C+Philip+K%2C
p4614
VEye+in+the+sky
p4615
g33
g6
(lp4616
g33
atp4617
a(I758
V1958
p4618
Vchirandom | teamred
p4619
VTaylor%2C+Robert+Lewis%2C
p4620
VThe+travels+of+Jaimie+McP
p4621
g5
g6
(lp4622
tp4623
a(I759
V1958
p4624
Vchirandom | teamblack
p4625
VUpdike%2C+John%2C
p4626
VThe+poorhouse+fair
p4627
g5
g6
(lp4628
tp4629
a(I760
V1958
p4630
Vchirandom | teamblack
p4631
VMacInnes%2C+Helen%2C
p4632
VNorth+from+Rome
p4633
g5
g6
(lp4634
tp4635
a(I761
V1959
p4636
Vchirandom | teamblack
p4637
VKirkland%2C+Elithe+Hamilton
p4638
VLove+is+a+wild+assault
p4639
g5
g6
(lp4640
tp4641
a(I762
V1959
p4642
Vteamred | det100 | chimyst
p4643
VGardner%2C+Erle+Stanley%2C
p4644
VThe+case+of+the+deadly+to
p4645
g658
g6
(lp4646
g658
atp4647
a(I763
V1959
p4648
Vteamred | chiscifi
p4649
VGantz%2C+Kenneth+Franklin%2C
p4650
VNot+in+solitude
p4651
g33
g6
(lp4652
g33
atp4653
a(I764
V1959
p4654
Vteamblack | chiscifi | stew
p4655
VHeinlein%2C+Robert+A.
p4656
VStarship+troopers
p4657
g33
g6
(lp4658
g33
atp4659
a(I765
V1959
p4660
Vchirandom | hardboiled | chimyst | teamred
p4661
VHimes%2C+Chester+B.
p4662
VThe+crazy+kill
p4663
g658
g6
(lp4664
g658
atp4665
a(I766
V1959
p4666
Vteamblack | pbgothic | lavin_slasher
p4667
VBloch%2C+Robert%2C
p4668
VPsycho
p4669
g25
Vlavin_slasher
p4670
(lp4671
g25
atp4672
a(I767
V1959
p4673
Vteamblack | pbgothic | stew | lavin_ghost
p4674
VJackson%2C+Shirley%2C
p4675
VThe+Haunting+of+Hill+House
p4676
g25
Vlavin_ghost
p4677
(lp4678
g25
atp4679
a(I768
V1959
p4680
Vchirandom | teamred
p4681
VNin%2C+Anais%2C
p4682
VChildren+of+the+albatross
p4683
g5
g6
(lp4684
tp4685
a(I769
V1959
p4686
Vteamred | chimyst
p4687
VStout%2C+Rex%2C
p4688
VPlot+it+yourself
p4689
g257
g6
(lp4690
g257
atp4691
a(I770
V1960
p4692
Vteamblack | chiscifi
p4693
VSheckley%2C+Robert%2C
p4694
VStore+of+infinity
p4695
g33
g6
(lp4696
g33
atp4697
a(I771
V1960
p4698
Vchirandom | teamblack
p4699
VSigal%2C+Clancy%2C
p4700
VWeekend+in+Dinlock
p4701
g5
g6
(lp4702
tp4703
a(I772
V1960
p4704
Vchirandom | teamblack
p4705
VMacInnes%2C+Helen%2C
p4706
VDecision+at+Delphi
p4707
g5
g6
(lp4708
tp4709
a(I773
V1960
p4710
Vteamblack | chimyst | stew
p4711
VMcBain%2C+Ed%2C
p4712
VGive+the+boys+a+great+big
p4713
g257
g6
(lp4714
g257
atp4715
a(I774
V1960
p4716
Vteamred | chimyst
p4717
VVance%2C+Jack%2C
p4718
VThe+man+in+the+cage
p4719
g257
g6
(lp4720
g257
atp4721
a(I775
V1961
p4722
Vchirandom | teamred
p4723
VRobbins%2C+Harold%2C
p4724
VThe+carpetbaggers
p4725
g5
g6
(lp4726
tp4727
a(I776
V1961
p4728
Vchirandom | teamblack | chimyst
p4729
VStout%2C+Rex%2C
p4730
VThe+final+deduction
p4731
g257
g6
(lp4732
g257
atp4733
a(I777
V1961
p4734
Vteamred | chiscifi | stew
p4735
VGalouye%2C+Daniel+F%2C
p4736
VDark+universe
p4737
g33
g6
(lp4738
g33
atp4739
a(I778
V1962
p4740
Vteamred | chiscifi | stew
p4741
VGarrett%2C+Randall%2C
p4742
VUnwise+child
p4743
g33
g6
(lp4744
g33
atp4745
a(I779
V1962
p4746
Vchirandom | teamblack
p4747
VBurroughs%2C+William+S.
p4748
VThe+ticket+that+exploded
p4749
g5
g6
(lp4750
tp4751
a(I780
V1962
p4752
Vteamblack | chihorror | chiscifi | lavin_magic
p4753
VBradbury%2C+Ray%2C
p4754
VSomething+wicked+this+way
p4755
g494
Vlavin_magic
p4756
(lp4757
g475
ag33
atp4758
a(I781
V1962
p4759
Vteamblack | chiscifi
p4760
VClifton%2C+Mark%2C
p4761
VWhen+they+come+from+space
p4762
g33
g6
(lp4763
g33
atp4764
a(I782
V1962
p4765
Vchifantasy | teamblack | chiscifi
p4766
VL%27Engle%2C+Madeleine%2C
p4767
VA+wrinkle+in+time
p4768
g33
g6
(lp4769
g33
atp4770
a(I783
V1962
p4771
Vchiutopia | chiscifi | teamred
p4772
VHuxley%2C+Aldous%2C
p4773
VIsland
p4774
g33
g6
(lp4775
g33
atp4776
a(I784
V1962
p4777
Vchirandom | teamblack | chimyst
p4778
VStout%2C+Rex%2C
p4779
VGambit
p4780
g257
g6
(lp4781
g257
atp4782
a(I785
V1962
p4783
Vteamblack | chimyst
p4784
VShannon%2C+Dell%2C
p4785
VExtra+kill
p4786
g257
g6
(lp4787
g257
atp4788
a(I786
V1963
p4789
Vchirandom | teamblack
p4790
VKerouac%2C+Jack%2C
p4791
VVisions+of+Gerard
p4792
g5
g6
(lp4793
tp4794
a(I787
V1963
p4795
Vteamblack | chiscifi
p4796
VVonnegut%2C+Kurt%2C
p4797
VCat%27s+Cradle
p4798
g33
g6
(lp4799
g33
atp4800
a(I788
V1963
p4801
Vchirandom | teamblack
p4802
VCaldwell%2C+Taylor%2C
p4803
VGrandmother+and+the+pries
p4804
g5
g6
(lp4805
tp4806
a(I789
V1964
p4807
Vchirandom | teamblack
p4808
VFast%2C+Howard%2C
p4809
VAgrippa%27s+daughter
p4810
g5
g6
(lp4811
tp4812
a(I790
V1964
p4813
Vchirandom | teamblack
p4814
VSnow%2C+C.+P.
p4815
VCorridors+of+power
p4816
g5
g6
(lp4817
tp4818
a(I791
V1964
p4819
Vteamblack | chiscifi
p4820
VClement%2C+Hal%2C
p4821
VClose+to+critical
p4822
g33
g6
(lp4823
g33
atp4824
a(I792
V1964
p4825
Vteamblack | chiscifi
p4826
VBurroughs%2C+William+S.
p4827
VNova+Express
p4828
g33
g6
(lp4829
g33
atp4830
a(I793
V1964
p4831
Vchirandom | teamred
p4832
VKim%2C+Richard+E.
p4833
VThe+martyred
p4834
g5
g6
(lp4835
tp4836
a(I794
V1965
p4837
Vchirandom | teamblack
p4838
VTraver%2C+Robert%2C
p4839
VLaughing+whitefish
p4840
g5
g6
(lp4841
tp4842
a(I795
V1965
p4843
Vteamred | chimyst
p4844
VBall%2C+John+Dudley%2C
p4845
VIn+the+heat+of+the+night
p4846
g257
g6
(lp4847
g257
atp4848
a(I796
V1965
p4849
Vchirandom | teamblack
p4850
VSpencer%2C+Elizabeth%2C
p4851
VThe+voice+at+the+back+doo
p4852
g5
g6
(lp4853
tp4854
a(I797
V1965
p4855
Vteamblack | chimyst | stew
p4856
VAllingham%2C+Margery%2C
p4857
VThe+mind+readers
p4858
g257
g6
(lp4859
g257
atp4860
a(I798
V1965
p4861
Vchirandom | teamred | chimyst
p4862
VMacDonald%2C+John+D.
p4863
VA+deadly+shade+of+gold
p4864
g257
g6
(lp4865
g257
atp4866
a(I799
V1965
p4867
Vchirandom | teamblack
p4868
VMoore%2C+Robin%2C
p4869
VThe+green+berets
p4870
g5
g6
(lp4871
tp4872
a(I800
V1965
p4873
Vchirandom | teamred
p4874
VNabokov%2C+Vladimir+Vladimi
p4875
VThe+eye
p4876
g5
g6
(lp4877
tp4878
a(I801
V1965
p4879
Vteamred | chimyst
p4880
VPrather%2C+Richard+S%2C
p4881
VThe+meandering+corpse
p4882
g257
g6
(lp4883
g257
atp4884
a(I802
V1965
p4885
Vteamred | chiscifi | stew
p4886
VRaphael%2C+Rick%2C
p4887
VCode+three
p4888
g33
g6
(lp4889
g33
atp4890
a(I803
V1965
p4891
Vchirandom | teamblack
p4892
VBraithwaite%2C+E.+R.++%28Edwa
p4893
VChoice+of+straws
p4894
g5
g6
(lp4895
tp4896
a(I804
V1965
p4897
Vchirandom | teamblack
p4898
VFriedman%2C+Sanford%2C
p4899
VTotempole
p4900
g5
g6
(lp4901
tp4902
a(I805
V1966
p4903
Vchirandom | teamblack
p4904
VPynchon%2C+Thomas%2C
p4905
VThe+crying+of+lot+49
p4906
g5
g6
(lp4907
tp4908
a(I806
V1966
p4909
Vchirandom | teamblack | chiscifi
p4910
VDick%2C+Philip+K%2C
p4911
VNow+wait+for+last+year
p4912
g33
g6
(lp4913
g33
atp4914
a(I807
V1966
p4915
Vteamred | chiscifi
p4916
VHerbert%2C+Frank%2C
p4917
VThe+eyes+of+Heisenberg
p4918
g33
g6
(lp4919
g33
atp4920
a(I808
V1966
p4921
Vteamred | chimyst
p4922
VMacDonald%2C+John+D.
p4923
VDarker+than+amber
p4924
g257
g6
(lp4925
g257
atp4926
a(I809
V1966
p4927
Vteamred | chiscifi
p4928
VDelany%2C+Samuel+R%2C
p4929
VBabel-17
p4930
g33
g6
(lp4931
g33
atp4932
a(I810
V1966
p4933
Vteamred | chimyst | stew
p4934
VWestlake%2C+Donald+E%2C
p4935
VThe+busy+body
p4936
g257
g6
(lp4937
g257
atp4938
a(I811
V1966
p4939
Vchifantasy | teamblack | chiscifi
p4940
VZelazny%2C+Roger%2C
p4941
VThis+immortal
p4942
g33
g6
(lp4943
g33
atp4944
a(I812
V1966
p4945
Vchirandom | teamred
p4946
VCapps%2C+Benjamin%2C
p4947
VA+woman+of+the+people
p4948
g5
g6
(lp4949
tp4950
a(I813
V1966
p4951
Vteamred | chiscifi | stew
p4952
VAsimov%2C+Isaac%2C
p4953
VFantastic+voyage
p4954
g33
g6
(lp4955
g33
atp4956
a(I814
V1966
p4957
Vteamred | chifantasy
p4958
VAlexander%2C+Lloyd%2C
p4959
VThe+castle+of+Llyr
p4960
g5
g6
(lp4961
tp4962
a(I815
V1966
p4963
Vteamred | chiscifi
p4964
VSchmitz%2C+James+H.
p4965
VThe+witches+of+Karres
p4966
g33
g6
(lp4967
g33
atp4968
a(I816
V1967
p4969
Vteamblack | chimyst
p4970
VVance%2C+Jack%2C
p4971
VThe+Pleasant+Grove+murder
p4972
g257
g6
(lp4973
g257
atp4974
a(I817
V1967
p4975
Vchirandom | teamblack
p4976
VFox%2C+Paula%2C
p4977
VPoor+George
p4978
g5
g6
(lp4979
tp4980
a(I818
V1967
p4981
Vchirandom | teamblack | chimyst
p4982
VBraun%2C+Lilian+Jackson%2C
p4983
VThe+cat+who+ate+Danish+mo
p4984
g257
g6
(lp4985
g257
atp4986
a(I819
V1967
p4987
Vchifantasy | teamblack
p4988
VReed%2C+Ishmael%2C
p4989
VThe+free-lance+pallbearer
p4990
g5
g6
(lp4991
tp4992
a(I820
V1967
p4993
Vchirandom | teamred
p4994
VMcNichols%2C+Charles+Longstreth%2C
p4995
VCrazy+weather
p4996
g5
g6
(lp4997
tp4998
a(I821
V1967
p4999
Vteamblack | pbgothic | chihorror | stew | lavin_magic
p5000
VLevin%2C+Ira%2C
p5001
VRosemary%27s+baby
p5002
g25
Vlavin_magic
p5003
(lp5004
g25
atp5005
a(I822
V1967
p5006
Vteamblack | chimyst
p5007
VEllin%2C+Stanley%2C
p5008
VHouse+of+cards
p5009
g257
g6
(lp5010
g257
atp5011
a(I823
V1968
p5012
Vteamred | pbgothic | chihorror | lavin_magic
p5013
VOates%2C+Joyce+Carol%2C
p5014
VExpensive+people
p5015
g25
Vlavin_magic
p5016
(lp5017
g25
atp5018
a(I824
V1968
p5019
Vteamred | chihorror | lavin_magic
p5020
VChappell%2C+Fred%2C
p5021
VDagon
p5022
g475
Vlavin_magic
p5023
(lp5024
g475
atp5025
a(I825
V1968
p5026
Vchirandom | teamblack
p5027
VPeters%2C+Elizabeth%2C
p5028
VThe+jackal%27s+head
p5029
g5
g6
(lp5030
tp5031
a(I826
V1969
p5032
Vchirandom | teamred
p5033
VDavis%2C+Gwen%2C
p5034
VThe+pretenders
p5035
g5
g6
(lp5036
tp5037
a(I827
V1969
p5038
Vteamred | chimyst
p5039
VMacdonald%2C+Ross%2C
p5040
VThe+goodbye+look
p5041
g257
g6
(lp5042
g257
atp5043
a(I828
V1969
p5044
Vchirandom | teamblack
p5045
VNabokov%2C+Vladimir+Vladimi
p5046
VAda
p5047
g5
g6
(lp5048
tp5049
a(I829
V1969
p5050
Vteamred | chiscifi
p5051
VDick%2C+Philip+K%2C
p5052
VGalactic+pot-healer
p5053
g33
g6
(lp5054
g33
atp5055
a(I830
V1969
p5056
Vteamred | chimyst | stew
p5057
VNielsen%2C+Helen%2C
p5058
VDarkest+hour
p5059
g257
g6
(lp5060
g257
atp5061
a(I831
V1969
p5062
Vchifantasy | teamblack
p5063
VDu+Maurier%2C+Daphne%2C
p5064
VThe+house+on+the+strand
p5065
g5
g6
(lp5066
tp5067
a(I832
V1969
p5068
Vchirandom | teamblack | chimyst | stew
p5069
VPentecost%2C+Hugh%2C
p5070
VGirl+watcher%27s+funeral
p5071
g257
g6
(lp5072
g257
atp5073
a(I833
V1969
p5074
Vteamblack | chiscifi
p5075
VDavidson%2C+Avram%2C
p5076
VThe+phoenix+and+the+mirro
p5077
g33
g6
(lp5078
g33
atp5079
a(I834
V1969
p5080
Vteamred | chimyst
p5081
VStout%2C+Rex%2C
p5082
VDeath+of+a+dude
p5083
g257
g6
(lp5084
g257
atp5085
a(I835
V1970
p5086
Vchirandom | teamblack | chiscifi
p5087
VAnderson%2C+Poul%2C
p5088
VTau+zero
p5089
g33
g6
(lp5090
g33
atp5091
a(I836
V1970
p5092
Vhardboiled | teamblack | chimyst | stew
p5093
VSpillane%2C+Mickey%2C
p5094
VSurvival+Zero
p5095
g658
g6
(lp5096
g658
atp5097
a(I837
V1970
p5098
Vteamblack | chiscifi
p5099
VSilverberg%2C+Robert%2C
p5100
VDownward+to+the+earth
p5101
g33
g6
(lp5102
g33
atp5103
a(I838
V1970
p5104
Vchiutopia | teamblack
p5105
VBrown%2C+James+Cooke%2C
p5106
VThe+Troika+incident
p5107
g33
g6
(lp5108
g33
atp5109
a(I839
V1970
p5110
Vchifantasy | teamblack | chiscifi
p5111
VKurtz%2C+Katherine%2C
p5112
VDeryni+rising
p5113
g33
g6
(lp5114
g33
atp5115
a(I840
V1970
p5116
Vchirandom | teamred
p5117
VL%27Amour%2C+Louis%2C
p5118
VGalloway
p5119
g5
g6
(lp5120
tp5121
a(I841
V1970
p5122
Vchirandom | teamred
p5123
VWhite%2C+Patrick%2C
p5124
VThe+vivisector
p5125
g5
g6
(lp5126
tp5127
a(I842
V1971
p5128
Vchiutopia | chiscifi | teamred | stew
p5129
VGeissler%2C+Ludwig+A%2C
p5130
VLooking+beyond
p5131
g33
g6
(lp5132
g33
atp5133
a(I843
V1971
p5134
Vchifantasy | teamblack
p5135
VCorman%2C+Avery%2C
p5136
VOh%3A+God%21
p5137
g5
g6
(lp5138
tp5139
a(I844
V1971
p5140
Vteamblack | pbgothic | lavin_magic
p5141
VBlatty%2C+William+Peter
p5142
VThe+exorcist
p5143
g25
Vlavin_magic
p5144
(lp5145
g25
atp5146
a(I845
V1971
p5147
Vteamred | chiscifi
p5148
VHjortsberg%2C+William%2C
p5149
VGray+matters
p5150
g33
g6
(lp5151
g33
atp5152
a(I846
V1971
p5153
Vteamblack | chimyst | stew
p5154
VPentecost%2C+Hugh%2C
p5155
VThe+deadly+joke
p5156
g257
g6
(lp5157
g257
atp5158
a(I847
V1971
p5159
Vteamblack | chimyst
p5160
VThomas%2C+Ross%2C
p5161
VThe+fools+in+town+are+on+
p5162
g257
g6
(lp5163
g257
atp5164
a(I848
V1971
p5165
Vteamred | chimyst
p5166
VPronzini%2C+Bill%2C
p5167
VThe+stalker
p5168
g257
g6
(lp5169
g257
atp5170
a(I849
V1972
p5171
Vteamblack | chihorror | chiscifi
p5172
VLevin%2C+Ira%2C
p5173
VThe+Stepford+wives
p5174
g494
g6
(lp5175
g475
ag33
atp5176
a(I850
V1972
p5177
Vchirandom | teamred | crime
p5178
VHighsmith%2C+Patricia%2C
p5179
VA+dog%27s+ransom
p5180
g658
g6
(lp5181
g658
atp5182
a(I851
V1972
p5183
Vchirandom | teamred
p5184
VMillhauser%2C+Steven%2C
p5185
VEdwin+Mullhouse
p5186
g5
g6
(lp5187
tp5188
a(I852
V1973
p5189
Vchirandom | teamblack | chiscifi
p5190
VMalzberg%2C+Barry+N%2C
p5191
VHerovit%27s+world
p5192
g33
g6
(lp5193
g33
atp5194
a(I853
V1973
p5195
Vteamred | chimyst
p5196
VStout%2C+Rex%2C
p5197
VPlease+pass+the+guilt
p5198
g257
g6
(lp5199
g257
atp5200
a(I854
V1973
p5201
Vchirandom | teamblack
p5202
VSpencer%2C+Scott%2C
p5203
VLast+night+at+the+brain+t
p5204
g5
g6
(lp5205
tp5206
a(I855
V1973
p5207
Vchirandom | teamblack | chimyst
p5208
VDavis%2C+Dorothy+Salisbury%2C
p5209
VThe+little+brothers
p5210
g257
g6
(lp5211
g257
atp5212
a(I856
V1973
p5213
Vteamred | chiscifi
p5214
VVonnegut%2C+Kurt%2C
p5215
VBreakfast+of+Champions
p5216
g33
g6
(lp5217
g33
atp5218
a(I857
V1973
p5219
Vchirandom | teamred | chifantasy
p5220
VGardner%2C+John%2C
p5221
VJason+and+Medeia
p5222
g5
g6
(lp5223
tp5224
a(I858
V1973
p5225
Vchirandom | teamred | chimyst
p5226
VMacDonald%2C+John+D.
p5227
VThe+scarlet+ruse
p5228
g257
g6
(lp5229
g257
atp5230
a(I859
V1973
p5231
Vchirandom | teamred
p5232
VBerryman%2C+John%2C
p5233
VRecovery
p5234
g5
g6
(lp5235
tp5236
a(I860
V1973
p5237
Vteamblack | chimyst
p5238
VPlatt%2C+Kin%2C
p5239
VThe+Princess+Stakes+murde
p5240
g257
g6
(lp5241
g257
atp5242
a(I861
V1973
p5243
Vchirandom | teamred
p5244
VPiercy%2C+Marge%2C
p5245
VSmall+changes
p5246
g5
g6
(lp5247
tp5248
a(I862
V1974
p5249
Vchirandom | teamblack | crime
p5250
VStark%2C+Richard%2C
p5251
VButcher%27s+moon
p5252
g658
g6
(lp5253
g658
atp5254
a(I863
V1974
p5255
Vchiutopia | chiscifi | teamred
p5256
VLe+Guin%2C+Ursula+K.
p5257
VThe+Dispossessed
p5258
g33
g6
(lp5259
g33
atp5260
a(I864
V1974
p5261
Vteamred | chimyst | stew
p5262
VPlatt%2C+Kin%2C
p5263
VThe+giant+kill
p5264
g257
g6
(lp5265
g257
atp5266
a(I865
V1974
p5267
Vteamblack | chimyst
p5268
VHarrison%2C+Harry%2C
p5269
VQueen+Victoria%27s+revenge
p5270
g257
g6
(lp5271
g257
atp5272
a(I866
V1975
p5273
Vchirandom | chifantasy | teamblack
p5274
VStasheff%2C+Christopher%2C
p5275
VThe+warlock+in+spite+of+h
p5276
g5
g6
(lp5277
tp5278
a(I867
V1975
p5279
Vteamblack | chiscifi | stew
p5280
VSilverberg%2C+Robert%2C
p5281
VThe+stochastic+man
p5282
g33
g6
(lp5283
g33
atp5284
a(I868
V1976
p5285
Vteamblack | chihorror | stew | lavin_magic
p5286
VFarris%2C+John%2C
p5287
VThe+fury
p5288
g475
Vlavin_magic
p5289
(lp5290
g475
atp5291
a(I869
V1976
p5292
Vteamblack | pbgothic | lavin_magic
p5293
VRice%2C+Anne
p5294
VInterview+with+the+vampir
p5295
g25
Vlavin_magic
p5296
(lp5297
g25
atp5298
a(I870
V1976
p5299
Vteamblack | chiscifi
p5300
VNiven%2C+Larry%2C
p5301
VA+world+out+of+time
p5302
g33
g6
(lp5303
g33
atp5304
a(I871
V1976
p5305
Vteamblack | chimyst
p5306
VPlatt%2C+Kin%2C
p5307
VThe+body+beautiful+murder
p5308
g257
g6
(lp5309
g257
atp5310
a(I872
V1976
p5311
Vchiutopia | chiscifi | teamred
p5312
VPiercy%2C+Marge%2C
p5313
VWoman+on+the+edge+of+time
p5314
g33
g6
(lp5315
g33
atp5316
a(I873
V1976
p5317
Vchirandom | teamblack
p5318
VL%27Amour%2C+Louis%2C
p5319
VTo+the+Far+Blue+Mountains
p5320
g5
g6
(lp5321
tp5322
a(I874
V1976
p5323
Vchifantasy | teamblack
p5324
VVonnegut%2C+Kurt%2C
p5325
VSlapstick
p5326
g5
g6
(lp5327
tp5328
a(I875
V1976
p5329
Vteamred | chifantasy | chiscifi
p5330
VButler%2C+Octavia+E%2C
p5331
VPatternmaster
p5332
g33
g6
(lp5333
g33
atp5334
a(I876
V1976
p5335
Vteamred | chimyst
p5336
VLutz%2C+John%2C
p5337
VBuyer+beware
p5338
g257
g6
(lp5339
g257
atp5340
a(I877
V1976
p5341
Vchirandom | teamred
p5342
VJenkins%2C+Dan%2C
p5343
VLimo
p5344
g5
g6
(lp5345
tp5346
a(I878
V1977
p5347
Vchirandom | teamblack
p5348
VMichaels%2C+Fern%2C
p5349
VCaptive+passions
p5350
g5
g6
(lp5351
tp5352
a(I879
V1977
p5353
Vchirandom | teamred
p5354
VSegal%2C+Erich%2C
p5355
VOliver%27s+story
p5356
g5
g6
(lp5357
tp5358
a(I880
V1977
p5359
Vteamred | chifantasy | chiscifi
p5360
VLeiber%2C+Fritz%2C
p5361
VOur+lady+of+darkness
p5362
g33
g6
(lp5363
g33
atp5364
a(I881
V1977
p5365
Vteamred | chihorror | lavin_slasher
p5366
VSaul%2C+John%2C
p5367
VSuffer+the+children
p5368
g475
Vlavin_slasher
p5369
(lp5370
g475
atp5371
a(I882
V1977
p5372
Vteamblack | chiscifi
p5373
VDick%2C+Philip+K%2C
p5374
VA+scanner+darkly
p5375
g33
g6
(lp5376
g33
atp5377
a(I883
V1977
p5378
Vteamred | chimyst
p5379
VSanders%2C+Lawrence%2C
p5380
VThe+second+deadly+sin
p5381
g257
g6
(lp5382
g257
atp5383
a(I884
V1977
p5384
Vchirandom | chifantasy | teamblack | chiscifi | stew
p5385
VDonaldson%2C+Stephen+R%2C
p5386
VThe+power+that+preserves
p5387
g33
g6
(lp5388
g33
atp5389
a(I885
V1977
p5390
Vchirandom | teamred | chiscifi
p5391
VFoster%2C+Alan+Dean%2C
p5392
VThe+end+of+the+matter
p5393
g33
g6
(lp5394
g33
atp5395
a(I886
V1977
p5396
Vchifantasy | teamblack
p5397
VAnthony%2C+Piers%2C
p5398
VA+spell+for+Chameleon
p5399
g5
g6
(lp5400
tp5401
a(I887
V1977
p5402
Vchifantasy | teamblack
p5403
VDonaldson%2C+Stephen+R%2C
p5404
VThe+Illearth+war
p5405
g5
g6
(lp5406
tp5407
a(I888
V1978
p5408
Vteamblack | chimyst
p5409
VSanchez%2C+Thomas%2C
p5410
VZoot-suit+murders
p5411
g257
g6
(lp5412
g257
atp5413
a(I889
V1978
p5414
Vteamred | chimyst
p5415
VPeters%2C+Elizabeth%2C
p5416
VStreet+of+the+five+moons
p5417
g257
g6
(lp5418
g257
atp5419
a(I890
V1978
p5420
Vteamred | chimyst
p5421
VMcdonald%2C+Gregory%2C
p5422
VFletch%27s+fortune
p5423
g257
g6
(lp5424
g257
atp5425
a(I891
V1978
p5426
Vteamred | chiscifi | stew
p5427
VBova%2C+Ben%2C
p5428
VColony
p5429
g33
g6
(lp5430
g33
atp5431
a(I892
V1978
p5432
Vchirandom | teamblack
p5433
VBayer%2C+William%2C
p5434
VTangier
p5435
g5
g6
(lp5436
tp5437
a(I893
V1978
p5438
Vteamred | pbgothic
p5439
VStrieber%2C+Whitley
p5440
VThe+wolfen
p5441
g25
g6
(lp5442
g25
atp5443
a(I894
V1978
p5444
Vchirandom | teamred
p5445
VSwift%2C+Edward%2C
p5446
VSplendora
p5447
g5
g6
(lp5448
tp5449
a(I895
V1978
p5450
Vchirandom | teamred
p5451
VBrown%2C+Wesley%2C
p5452
VTragic+magic
p5453
g5
g6
(lp5454
tp5455
a(I896
V1978
p5456
Vteamred | chihorror | stew
p5457
VDaniels%2C+Les%2C
p5458
VThe+black+castle
p5459
g475
g6
(lp5460
g475
atp5461
a(I897
V1978
p5462
Vteamred | chimyst | stew
p5463
VWilcox%2C+Collin%2C
p5464
VThe+watcher
p5465
g257
g6
(lp5466
g257
atp5467
a(I898
V1978
p5468
Vteamred | chihorror | stew | lavin_magic
p5469
VKing%2C+Stephen%2C
p5470
VThe+stand
p5471
g475
Vlavin_magic
p5472
(lp5473
g475
atp5474
a(I899
V1978
p5475
Vteamred | chiscifi
p5476
VLustbader%2C+Eric%2C
p5477
VShallows+of+night
p5478
g33
g6
(lp5479
g33
atp5480
a(I900
V1978
p5481
Vteamred | chimyst | chihorror | lavin_magic
p5482
VEstleman%2C+Loren+D%2C
p5483
VSherlock+Holmes+vs.+Dracu
p5484
g494
Vlavin_magic
p5485
(lp5486
g475
ag257
atp5487
a(I901
V1978
p5488
Vchirandom | teamblack
p5489
VAdler%2C+Warren%2C
p5490
VThe+Casanova+embrace
p5491
g5
g6
(lp5492
tp5493
a(I902
V1979
p5494
Vteamblack | chiscifi
p5495
VSchulman%2C+J.+Neil+1953-++
p5496
VAlongside+night
p5497
g33
g6
(lp5498
g33
atp5499
a(I903
V1979
p5500
Vchirandom | teamred
p5501
VGordon%2C+Noah%2C
p5502
VThe+Jerusalem+diamond
p5503
g5
g6
(lp5504
tp5505
a(I904
V1979
p5506
Vteamred | chiscifi | stew
p5507
VZebrowski%2C+George%2C
p5508
VMacrolife
p5509
g33
g6
(lp5510
g33
atp5511
a(I905
V1979
p5512
Vteamblack | chiscifi | stew
p5513
VDickson%2C+Gordon+R%2C
p5514
VMasters+of+Everon
p5515
g33
g6
(lp5516
g33
atp5517
a(I906
V1979
p5518
Vchirandom | teamblack
p5519
VCline%2C+C.+Terry%2C
p5520
VCross+current
p5521
g5
g6
(lp5522
tp5523
a(I907
V1979
p5524
Vteamblack | chihorror | chiscifi | stew | lavin_ghost
p5525
VKing%2C+Stephen%2C
p5526
VThe+dead+zone
p5527
g494
Vlavin_ghost
p5528
(lp5529
g475
ag33
atp5530
a(I908
V1979
p5531
Vteamred | chifantasy | chiscifi
p5532
VStasheff%2C+Christopher%2C
p5533
VA+wizard+in+Bedlam
p5534
g33
g6
(lp5535
g33
atp5536
a(I909
V1979
p5537
Vchirandom | teamblack
p5538
VBraverman%2C+Kate%2C
p5539
VLithium+for+Medea
p5540
g5
g6
(lp5541
tp5542
a(I910
V1980
p5543
Vchirandom | teamblack
p5544
VJakes%2C+John%2C
p5545
VThe+Americans
p5546
g5
g6
(lp5547
tp5548
a(I911
V1980
p5549
Vteamred | chiscifi
p5550
VKurland%2C+Michael%2C
p5551
VThe+last+President
p5552
g33
g6
(lp5553
g33
atp5554
a(I912
V1980
p5555
Vteamred | chihorror
p5556
VAndrews%2C+V.+C.++%28Virginia
p5557
VPetals+on+the+wind
p5558
g475
g6
(lp5559
g475
atp5560
a(I913
V1980
p5561
Vchirandom | teamred
p5562
VHerzog%2C+Arthur%2C
p5563
VAries+rising
p5564
g5
g6
(lp5565
tp5566
a(I914
V1981
p5567
Vchimyst | pbgothic | teamred | lavin_slasher
p5568
VHarris%2C+Thomas
p5569
VRed+dragon
p5570
g494
Vlavin_slasher
p5571
(lp5572
g25
ag257
atp5573
a(I915
V1981
p5574
Vchirandom | teamred
p5575
VJones%2C+Robert+F.
p5576
VSlade%27s+glacier
p5577
g5
g6
(lp5578
tp5579
a(I916
V1981
p5580
Vteamblack | chimyst | stew
p5581
VValin%2C+Jonathan%2C
p5582
VDead+Letter
p5583
g257
g6
(lp5584
g257
atp5585
a(I917
V1981
p5586
Vteamred | chiscifi | stew
p5587
VNiven%2C+Larry%2C
p5588
VOath+of+fealty
p5589
g33
g6
(lp5590
g33
atp5591
a(I918
V1981
p5592
Vteamblack | chiscifi
p5593
VNiven%2C+Larry%2C
p5594
VDream+Park
p5595
g33
g6
(lp5596
g33
atp5597
a(I919
V1981
p5598
Vchirandom | teamred | chiscifi | stew
p5599
VVardeman%2C+Robert+E%2C
p5600
VThe+Klingon+gambit
p5601
g33
g6
(lp5602
g33
atp5603
a(I920
V1981
p5604
Vteamblack | pbgothic | stew | lavin_magic
p5605
VStrieber%2C+Whitley
p5606
VThe+hunger
p5607
g25
Vlavin_magic
p5608
(lp5609
g25
atp5610
a(I921
V1981
p5611
Vteamred | chiscifi | stew
p5612
VMay%2C+Julian%2C
p5613
VThe+many-colored+land
p5614
g33
g6
(lp5615
g33
atp5616
a(I922
V1981
p5617
Vteamred | chiscifi
p5618
VMcIntyre%2C+Vonda+N%2C
p5619
VThe+entropy+effect
p5620
g33
g6
(lp5621
g33
atp5622
a(I923
V1982
p5623
Vchirandom | teamred | chiscifi
p5624
VHubbard%2C+L.+Ron%2C
p5625
VBattlefield+earth
p5626
g33
g6
(lp5627
g33
atp5628
a(I924
V1982
p5629
Vteamblack | chimyst | stew
p5630
VMontalbano%2C+William+D%2C
p5631
VTrap+line
p5632
g257
g6
(lp5633
g257
atp5634
a(I925
V1982
p5635
Vteamblack | chiscifi
p5636
VBishop%2C+Michael%2C
p5637
VNo+enemy+but+time
p5638
g33
g6
(lp5639
g33
atp5640
a(I926
V1982
p5641
Vteamblack | chihorror | stew | lavin_slasher | lavin_deranged
p5642
VAndrews%2C+V.+C.++%28Virginia
p5643
VMy+sweet+Audrina
p5644
g475
g232
(lp5645
g475
atp5646
a(I927
V1982
p5647
Vteamblack | chimyst | stew
p5648
VWilcox%2C+Collin%2C
p5649
VStalking+horse
p5650
g257
g6
(lp5651
g257
atp5652
a(I928
V1982
p5653
Vteamblack | chiscifi | stew
p5654
VLorrah%2C+Jean%2C
p5655
VChannel%27s+destiny
p5656
g33
g6
(lp5657
g33
atp5658
a(I929
V1983
p5659
Vchirandom | teamred
p5660
VSpellman%2C+Cathy+Cash%2C
p5661
VSo+many+partings
p5662
g5
g6
(lp5663
tp5664
a(I930
V1983
p5665
Vchirandom | teamblack
p5666
VColdsmith%2C+Don%2C
p5667
VFollow+the+wind
p5668
g5
g6
(lp5669
tp5670
a(I931
V1983
p5671
Vchirandom | teamred | chimyst | stew
p5672
VMacLeod%2C+Charlotte%2C
p5673
VSomething+the+cat+dragged
p5674
g257
g6
(lp5675
g257
atp5676
a(I932
V1983
p5677
Vchirandom | teamred | chiscifi | stew
p5678
VFoster%2C+Alan+Dean%2C
p5679
VFor+love+of+mother-not
p5680
g33
g6
(lp5681
g33
atp5682
a(I933
V1983
p5683
Vchirandom | teamblack
p5684
VMeade%2C+Marion%2C
p5685
VSybille
p5686
g5
g6
(lp5687
tp5688
a(I934
V1983
p5689
Vteamblack | chiscifi
p5690
VMay%2C+Julian%2C
p5691
VThe+nonborn+king
p5692
g33
g6
(lp5693
g33
atp5694
a(I935
V1984
p5695
Vteamred | chifantasy | chiscifi
p5696
VCherryh%2C+C.+J%2C
p5697
VChanur%27s+venture
p5698
g33
g6
(lp5699
g33
atp5700
a(I936
V1984
p5701
Vteamred | chimyst
p5702
VMacLeod%2C+Charlotte%2C
p5703
VThe+Convivial+Codfish
p5704
g257
g6
(lp5705
g257
atp5706
a(I937
V1984
p5707
Vteamred | chimyst | stew
p5708
VMuller%2C+Marcia%2C
p5709
VGames+to+keep+the+dark+aw
p5710
g257
g6
(lp5711
g257
atp5712
a(I938
V1984
p5713
Vteamred | pbgothic | chiscifi | stew
p5714
VGibson%2C+William
p5715
VNeuromancer
p5716
g494
g6
(lp5717
g25
ag33
atp5718
a(I939
V1985
p5719
Vteamblack | chiscifi
p5720
VBenford%2C+Gregory%2C
p5721
VArtifact
p5722
g33
g6
(lp5723
g33
atp5724
a(I940
V1985
p5725
Vchirandom | teamblack | chiscifi | stew
p5726
VEffinger%2C+George+Alec%2C
p5727
VThe+nick+of+time
p5728
g33
g6
(lp5729
g33
atp5730
a(I941
V1985
p5731
Vchirandom | teamred | chimyst
p5732
VCollins%2C+Max+Allan%2C
p5733
VA+shroud+for+Aquarius
p5734
g257
g6
(lp5735
g257
atp5736
a(I942
V1985
p5737
Vchirandom | teamblack
p5738
VDick%2C+Philip+K%2C
p5739
VPuttering+about+in+a+smal
p5740
g5
g6
(lp5741
tp5742
a(I943
V1985
p5743
Vteamred | chimyst
p5744
VMacLeod%2C+Charlotte%2C
p5745
VThe+plain+old+man
p5746
g257
g6
(lp5747
g257
atp5748
a(I944
V1986
p5749
Vteamred | chiscifi
p5750
VDickson%2C+Gordon+R%2C
p5751
VThe+forever+man
p5752
g33
g6
(lp5753
g33
atp5754
a(I945
V1986
p5755
Vteamblack | chimyst
p5756
VFriedman%2C+Kinky%2C
p5757
VGreenwich+killing+time
p5758
g257
g6
(lp5759
g257
atp5760
a(I946
V1986
p5761
Vteamblack | chimyst | stew
p5762
VDunlap%2C+Susan%2C
p5763
VThe+last+annual+slugfest
p5764
g257
g6
(lp5765
g257
atp5766
a(I947
V1986
p5767
Vteamred | chihorror | chiscifi | stew | lavin_magic
p5768
VFoster%2C+Alan+Dean%2C
p5769
VInto+the+out+of
p5770
g494
Vlavin_magic
p5771
(lp5772
g475
ag33
atp5773
a(I948
V1986
p5774
Vteamred | chifantasy
p5775
VKerr%2C+Katharine%2C
p5776
VDaggerspell
p5777
g5
g6
(lp5778
tp5779
a(I949
V1987
p5780
Vchirandom | teamblack
p5781
VLogue%2C+John%2C
p5782
VBoats+against+the+current
p5783
g5
g6
(lp5784
tp5785
a(I950
V1987
p5786
Vchirandom | teamblack
p5787
VGuild%2C+Nicholas%2C
p5788
VThe+Assyrian
p5789
g5
g6
(lp5790
tp5791
a(I951
V1987
p5792
Vteamblack | chimyst | stew
p5793
VRay%2C+Robert+J.+1935-++%28Ro
p5794
VMurdock+for+hire
p5795
g257
g6
(lp5796
g257
atp5797
a(I952
V1987
p5798
Vchirandom | teamred
p5799
VSpencer%2C+LaVyrle%2C
p5800
VThe+gamble
p5801
g5
g6
(lp5802
tp5803
a(I953
V1987
p5804
Vchirandom | teamred | chimyst
p5805
VHiaasen%2C+Carl%2C
p5806
VDouble+whammy
p5807
g257
g6
(lp5808
g257
atp5809
a(I954
V1987
p5810
Vteamblack | chimyst
p5811
VParker%2C+Robert+B.
p5812
VPale+kings+and+princes
p5813
g257
g6
(lp5814
g257
atp5815
a(I955
V1987
p5816
Vteamred | chimyst
p5817
VBraun%2C+Lilian+Jackson%2C
p5818
VThe+cat+who+played+Brahms
p5819
g257
g6
(lp5820
g257
atp5821
a(I956
V1987
p5822
Vteamblack | chiscifi | stew
p5823
VBonanno%2C+Margaret+Wander%2C
p5824
VStrangers+from+the+sky
p5825
g33
g6
(lp5826
g33
atp5827
a(I957
V1987
p5828
Vchirandom | teamblack | chiscifi
p5829
VWilliams%2C+Walter+Jon%2C
p5830
VVoice+of+the+whirlwind
p5831
g33
g6
(lp5832
g33
atp5833
a(I958
V1987
p5834
Vchirandom | teamred | chimyst
p5835
VFriedman%2C+Kinky%2C
p5836
VA+case+of+Lone+Star
p5837
g257
g6
(lp5838
g257
atp5839
a(I959
V1987
p5840
Vchirandom | teamred
p5841
VFlynn%2C+Robert%2C
p5842
VWanderer+Springs
p5843
g5
g6
(lp5844
tp5845
a(I960
V1987
p5846
Vteamred | pbgothic | chihorror | lavin_slasher | lavin_deranged
p5847
VKing%2C+Stephen%2C
p5848
VMisery
p5849
g25
g232
(lp5850
g25
atp5851
a(I961
V1987
p5852
Vchirandom | teamred
p5853
VGregory%2C+Philippa%2C
p5854
VWideacre
p5855
g5
g6
(lp5856
tp5857
a(I962
V1987
p5858
Vteamblack | chimyst
p5859
VCollins%2C+Max+Allan%2C
p5860
VSpree
p5861
g257
g6
(lp5862
g257
atp5863
a(I963
V1987
p5864
Vchifantasy | teamblack
p5865
VAnthony%2C+Piers%2C
p5866
VBeing+a+green+mother
p5867
g5
g6
(lp5868
tp5869
a(I964
V1987
p5870
Vteamblack | pbgothic | lavin_ghost
p5871
VMorrison%2C+Toni
p5872
VBeloved
p5873
g25
Vlavin_ghost
p5874
(lp5875
g25
atp5876
a(I965
V1987
p5877
Vchirandom | teamred
p5878
VMcCaffrey%2C+Anne%2C
p5879
VThe+lady
p5880
g5
g6
(lp5881
tp5882
a(I966
V1987
p5883
Vchirandom | teamred
p5884
VSwift%2C+Edward%2C
p5885
VA+place+with+promise
p5886
g5
g6
(lp5887
tp5888
a(I967
V1988
p5889
Vteamred | chiscifi
p5890
VEngh%2C+M.+J%2C
p5891
VWheel+of+the+winds
p5892
g33
g6
(lp5893
g33
atp5894
a(I968
V1988
p5895
Vchifantasy | teamblack | pbgothic | stew | lavin_magic
p5896
VHambly%2C+Barbara
p5897
VThose+who+hunt+the+night
p5898
g25
Vlavin_magic
p5899
(lp5900
g25
atp5901
a(I969
V1988
p5902
Vchifantasy | teamblack
p5903
VAnthony%2C+Piers%2C
p5904
VHeaven+cent
p5905
g5
g6
(lp5906
tp5907
a(I970
V1988
p5908
Vteamblack | chimyst | stew
p5909
VHess%2C+Joan%2C
p5910
VMischief+in+Maggody
p5911
g257
g6
(lp5912
g257
atp5913
a(I971
V1988
p5914
Vteamred | chifantasy | chiscifi
p5915
VRosenberg%2C+Joel%2C
p5916
VNot+for+glory
p5917
g33
g6
(lp5918
g33
atp5919
a(I972
V1988
p5920
Vchirandom | teamblack | chimyst | stew
p5921
VGrissom%2C+Ken%2C
p5922
VDrop-off
p5923
g257
g6
(lp5924
g257
atp5925
a(I973
V1989
p5926
Vteamred | chimyst
p5927
VCrais%2C+Robert%2C
p5928
VStalking+the+angel
p5929
g257
g6
(lp5930
g257
atp5931
a(I974
V1989
p5932
Vchirandom | teamblack | chimyst
p5933
VGoldsborough%2C+Robert%2C
p5934
VThe+last+coincidence
p5935
g257
g6
(lp5936
g257
atp5937
a(I975
V1989
p5938
Vteamred | chimyst
p5939
VHillerman%2C+Tony%2C
p5940
VTalking+God
p5941
g257
g6
(lp5942
g257
atp5943
a(I976
V1989
p5944
Vteamblack | chihorror | stew
p5945
VSomtow%2C+S.+P%2C
p5946
VMoon+dance
p5947
g475
g6
(lp5948
g475
atp5949
a(I977
V1989
p5950
Vchirandom | teamblack | chiscifi | stew
p5951
VWeinstein%2C+Howard%2C
p5952
VPower+hungry
p5953
g33
g6
(lp5954
g33
atp5955
a(I978
V1989
p5956
Vteamred | chihorror | chiscifi | stew
p5957
VCook%2C+Robin%2C
p5958
VMutation
p5959
g494
g6
(lp5960
g475
ag33
atp5961
a(I979
V1989
p5962
Vteamred | chifantasy | chiscifi
p5963
VPowers%2C+Tim%2C
p5964
VThe+stress+of+her+regard
p5965
g33
g6
(lp5966
g33
atp5967
a(I980
V1989
p5968
Vchifantasy | teamblack | chimyst | chihorror | lavin_slasher | lavin_magic
p5969
VLackey%2C+Mercedes%2C
p5970
VBurning+water
p5971
g494
g232
(lp5972
g475
ag257
atp5973
a(I981
V1989
p5974
Vchirandom | teamred | chimyst | stew
p5975
VDunlap%2C+Susan%2C
p5976
VPious+deception
p5977
g257
g6
(lp5978
g257
atp5979
a(I982
V1989
p5980
Vteamred | chimyst | chiscifi
p5981
VShatner%2C+William%2C
p5982
VTekWar
p5983
g494
g6
(lp5984
g33
ag257
atp5985
a(I983
V1989
p5986
Vchirandom | teamblack
p5987
VMcMurtry%2C+Larry%2C
p5988
VSome+can+whistle
p5989
g5
g6
(lp5990
tp5991
a(I984
V1989
p5992
Vteamred | chiscifi
p5993
VJeter%2C+K.+W%2C
p5994
VFarewell+horizontal
p5995
g33
g6
(lp5996
g33
atp5997
a.